LX51 LINKER/LOCATER V4.66.93.0                                                          01/30/2021  20:27:41  PAGE 1


LX51 LINKER/LOCATER V4.66.93.0, INVOKED BY:
C:\KEIL_V5\C51\C51\BIN\LX51.EXE .\Output\GPIO.obj, .\Output\Delay.obj, .\Output\Common.obj, .\Output\iic_oled.obj, .\Out
>> put\HX711.obj, .\Output\STARTUP.obj TO .\Output\GPIO PRINT (.\LST\GPIO.map) DISABLEWARNING (16)


CPU MODE:     8051 MODE
MEMORY MODEL: SMALL WITH FLOATING POINT ARITHMETIC


INPUT MODULES INCLUDED:
  .\Output\GPIO.obj (GPIO)
         COMMENT TYPE 0: C51 V9.59.0.0
  .\Output\Delay.obj (DELAY)
         COMMENT TYPE 0: C51 V9.59.0.0
  .\Output\Common.obj (COMMON)
         COMMENT TYPE 0: C51 V9.59.0.0
  .\Output\iic_oled.obj (IIC_OLED)
         COMMENT TYPE 0: C51 V9.59.0.0
  .\Output\HX711.obj (HX711)
         COMMENT TYPE 0: C51 V9.59.0.0
  .\Output\STARTUP.obj (?C_STARTUP)
         COMMENT TYPE 1: A51 / ASM51 Assembler
  C:\KEIL_V5\C51\C51\LIB\C51FPS.LIB (?C?FPDIV)
         COMMENT TYPE 1: A51 / ASM51 Assembler
  C:\KEIL_V5\C51\C51\LIB\C51FPS.LIB (?C?FCAST)
         COMMENT TYPE 1: A51 / ASM51 Assembler
  C:\KEIL_V5\C51\C51\LIB\C51FPS.LIB (?C?CASTF)
         COMMENT TYPE 1: A51 / ASM51 Assembler
  C:\KEIL_V5\C51\C51\LIB\C51FPS.LIB (?C?FPGETOPN)
         COMMENT TYPE 1: A51 / ASM51 Assembler
  C:\KEIL_V5\C51\C51\LIB\C51S.LIB (?C_INIT)
         COMMENT TYPE 1: A51 / ASM51 Assembler
  C:\KEIL_V5\C51\C51\LIB\C51S.LIB (?C?CLDOPTR)
         COMMENT TYPE 1: A51 / ASM51 Assembler
  C:\KEIL_V5\C51\C51\LIB\C51S.LIB (?C?IMUL)
         COMMENT TYPE 1: A51 / ASM51 Assembler
  C:\KEIL_V5\C51\C51\LIB\C51S.LIB (?C?SIDIV)
         COMMENT TYPE 1: A51 / ASM51 Assembler
  C:\KEIL_V5\C51\C51\LIB\C51S.LIB (?C?ULDIV)
         COMMENT TYPE 1: A51 / ASM51 Assembler
  C:\KEIL_V5\C51\C51\LIB\C51S.LIB (?C?LNEG)
         COMMENT TYPE 1: A51 / ASM51 Assembler
  C:\KEIL_V5\C51\C51\LIB\C51S.LIB (?C?ULCMP)
         COMMENT TYPE 1: A51 / ASM51 Assembler
  C:\KEIL_V5\C51\C51\LIB\C51S.LIB (?C?ULSHR)
         COMMENT TYPE 1: A51 / ASM51 Assembler
  C:\KEIL_V5\C51\C51\LIB\C51S.LIB (?C?LSHL)
         COMMENT TYPE 1: A51 / ASM51 Assembler
  C:\KEIL_V5\C51\C51\LIB\C51S.LIB (RAND)
         COMMENT TYPE 1: A51 / ASM51 Assembler
  C:\KEIL_V5\C51\C51\LIB\C51S.LIB (?C?UIDIV)
         COMMENT TYPE 1: A51 / ASM51 Assembler


ACTIVE MEMORY CLASSES OF MODULE:  .\Output\GPIO (GPIO)

BASE        START       END         USED      MEMORY CLASS
==========================================================
C:000000H   C:000000H   C:00FFFFH   000DA2H   CODE
I:000000H   I:000000H   I:00007FH   000061H   DATA
I:000020H.0 I:000020H.0 I:00002FH.7 000000H.2 BIT
C:000000H   C:000000H   C:00FFFFH   000946H   CONST
I:000000H   I:000000H   I:0000FFH   000001H   IDATA


MEMORY MAP OF MODULE:  .\Output\GPIO (GPIO)
LX51 LINKER/LOCATER V4.66.93.0                                                        01/30/2021  20:27:41  PAGE 2




START     STOP      LENGTH    ALIGN  RELOC    MEMORY CLASS   SEGMENT NAME
=========================================================================

* * * * * * * * * * *   D A T A   M E M O R Y   * * * * * * * * * * * * *
000000H   000007H   000008H   ---    AT..     DATA           "REG BANK 0"
000008H   000014H   00000DH   BYTE   UNIT     DATA           ?DT?HX711
000015H   00001FH   00000BH   BYTE   UNIT     DATA           ?DT?_OLED_DRAWBMP?IIC_OLED
000020H.0 000020H.0 000000H.1 BIT    UNIT     BIT            ?BI?DELAY
000020H.1 000020H.1 000000H.1 BIT    UNIT     BIT            ?BI?IIC_OLED
000020H.2 000020H   000000H.6 ---    ---      **GAP**
000021H   00002AH   00000AH   BYTE   UNIT     DATA           ?DT?_OLED_SHOWBMPEXP?IIC_OLED
00002BH   000034H   00000AH   BYTE   UNIT     DATA           _DATA_GROUP_
000035H   00003AH   000006H   BYTE   UNIT     DATA           ?DT?GPIO
00003BH   00003FH   000005H   BYTE   UNIT     DATA           ?DT?_OLED_CLEANBMPEXP?IIC_OLED
000040H   000043H   000004H   BYTE   UNIT     DATA           ?DT?_TIMER0_DELAY100US?DELAY
000044H   000047H   000004H   BYTE   UNIT     DATA           ?DT?_TIMER1_DELAY10MS?DELAY
000048H   00004BH   000004H   BYTE   UNIT     DATA           ?DT?_TIMER2_DELAY500US?DELAY
00004CH   00004FH   000004H   BYTE   UNIT     DATA           ?DT?_TIMER3_DELAY100MS?DELAY
000050H   000053H   000004H   BYTE   UNIT     DATA           ?DT?_TIMER3_DELAY10US?DELAY
000054H   000057H   000004H   BYTE   UNIT     DATA           ?DT?_INITIALUART0_TIMER3?COMMON
000058H   00005BH   000004H   BYTE   UNIT     DATA           ?DT?_INITIALUART1_TIMER3?COMMON
00005CH   00005FH   000004H   BYTE   UNIT     DATA           ?DT?RAND?RAND
000060H   000060H   000001H   BYTE   UNIT     DATA           ?DT?_OLED_POW?IIC_OLED
000061H   000061H   000001H   BYTE   UNIT     DATA           ?DT?_OLED_SHOWCHINESE?IIC_OLED
000062H   000062H   000001H   BYTE   UNIT     IDATA          ?STACK

* * * * * * * * * * *   C O D E   M E M O R Y   * * * * * * * * * * * * *
000000H   000002H   000003H   ---    OFFS..   CODE           ?CO??C_STARTUP?0
000003H   00033EH   00033CH   BYTE   UNIT     CODE           ?C?LIB_CODE
00033FH   000445H   000107H   BYTE   UNIT     CODE           ?PR?MAIN?GPIO
000446H   0004FEH   0000B9H   BYTE   UNIT     CODE           ?PR?OLED_INIT?IIC_OLED
0004FFH   0005AAH   0000ACH   BYTE   UNIT     CODE           ?C_C51STARTUP
0005ABH   000626H   00007CH   BYTE   UNIT     CODE           ?PR?_OLED_SHOWBMPEXP?IIC_OLED
000627H   000696H   000070H   BYTE   UNIT     CODE           ?PR?_OLED_SHOWCHINESE?IIC_OLED
000697H   0006FFH   000069H   BYTE   UNIT     CODE           ?PR?_INITIALUART0_TIMER3?COMMON
000700H   000767H   000068H   BYTE   UNIT     CODE           ?PR?HX711_READ?HX711
000768H   0007CCH   000065H   BYTE   UNIT     CODE           ?PR?_OLED_DRAWBMP?IIC_OLED
0007CDH   000831H   000065H   BYTE   UNIT     CODE           ?PR?GET_WEIGHT?HX711
000832H   000895H   000064H   BYTE   UNIT     CODE           ?PR?_INITIALUART1_TIMER3?COMMON
000896H   0008F8H   000063H   BYTE   UNIT     CODE           ?PR?_OLED_SHOWCHINESE48?IIC_OLED
0008F9H   00095BH   000063H   BYTE   UNIT     CODE           ?PR?_OLED_SHOWCHAR48?IIC_OLED
00095CH   0009B3H   000058H   BYTE   UNIT     CODE           ?PR?_OLED_CLEANBMPEXP?IIC_OLED
0009B4H   000A03H   000050H   BYTE   UNIT     CODE           ?PR?_TIMER3_DELAY100MS?DELAY
000A04H   000A53H   000050H   BYTE   UNIT     CODE           ?PR?_TIMER3_DELAY10US?DELAY
000A54H   000AA1H   00004EH   BYTE   UNIT     CODE           ?PR?_TIMER2_DELAY500US?DELAY
000AA2H   000AEEH   00004DH   BYTE   UNIT     CODE           ?PR?RAND?RAND
000AEFH   000B39H   00004BH   BYTE   UNIT     CODE           ?PR?_TIMER0_DELAY100US?DELAY
000B3AH   000B84H   00004BH   BYTE   UNIT     CODE           ?PR?_TIMER0_DELAY1MS?DELAY
000B85H   000BCFH   00004BH   BYTE   UNIT     CODE           ?PR?_TIMER1_DELAY10MS?DELAY
000BD0H   000C08H   000039H   BYTE   UNIT     CODE           ?PR?_INITIALUART0_TIMER1?COMMON
000C09H   000C3CH   000034H   BYTE   UNIT     CODE           ?PR?OLED_CLEAR?IIC_OLED
000C3DH   000C6DH   000031H   BYTE   UNIT     CODE           ?PR?_WRITE_IIC_BYTE?IIC_OLED
000C6EH   000C96H   000029H   BYTE   UNIT     CODE           ?PR?OLED_SCROLL?IIC_OLED
000C97H   000CB8H   000022H   BYTE   UNIT     CODE           ?PR?_OLED_SET_POS?IIC_OLED
000CB9H   000CD0H   000018H   BYTE   UNIT     CODE           ?PR?_OLED_POW?IIC_OLED
000CD1H   000CE5H   000015H   BYTE   UNIT     CODE           ?PR?OLED_DISPLAY_ON?IIC_OLED
000CE6H   000CFAH   000015H   BYTE   UNIT     CODE           ?PR?OLED_DISPLAY_OFF?IIC_OLED
000CFBH   000D0DH   000013H   BYTE   UNIT     CODE           ?PR?IIC_WAIT_ACK?IIC_OLED
000D0EH   000D1FH   000012H   BYTE   UNIT     CODE           ?PR?INIT_I2C?IIC_OLED
000D20H   000D31H   000012H   BYTE   UNIT     CODE           ?PR?_OLED_WR_BYTE?IIC_OLED
000D32H   000D3FH   00000EH   BYTE   UNIT     CODE           ?PR?_WRITE_IIC_COMMAND?IIC_OLED
000D40H   000D4DH   00000EH   BYTE   UNIT     CODE           ?PR?_WRITE_IIC_DATA?IIC_OLED
000D4EH   000D5AH   00000DH   BYTE   UNIT     CODE           ?PR?INIT_HX711PIN?HX711
LX51 LINKER/LOCATER V4.66.93.0                                                        01/30/2021  20:27:41  PAGE 3


000D5BH   000D66H   00000CH   BYTE   UNIT     CODE           ?PR?GET_MAOPI?HX711
000D67H   000D6FH   000009H   BYTE   UNIT     CODE           ?PR?IIC_START?IIC_OLED
000D70H   000D77H   000008H   BYTE   UNIT     CODE           ?PR?RECEIVE_DATA_FROM_UART0?COMMON
000D78H   000D7FH   000008H   BYTE   UNIT     CODE           ?PR?_SEND_DATA_TO_UART0?COMMON
000D80H   000D87H   000008H   BYTE   UNIT     CODE           ?PR?RECEIVE_DATA_FROM_UART1?COMMON
000D88H   000D8FH   000008H   BYTE   UNIT     CODE           ?PR?_SEND_DATA_TO_UART1?COMMON
000D90H   000D96H   000007H   BYTE   UNIT     CODE           ?PR?IIC_STOP?IIC_OLED
000D97H   000D9DH   000007H   BYTE   UNIT     CODE           ?PR?_DELAY__HX711_US?HX711
000D9EH   000DA1H   000004H   BYTE   UNIT     CODE           ?C_INITSEG
000DA2H   0016E7H   000946H   BYTE   UNIT     CONST          ?CO?IIC_OLED



OVERLAY MAP OF MODULE:   .\Output\GPIO (GPIO)


FUNCTION/MODULE                      BIT_GROUP   DATA_GROUP 
--> CALLED FUNCTION/MODULE          START  STOP  START  STOP
============================================================
?C_C51STARTUP                       ----- -----  ----- -----
  +--> MAIN/GPIO
  +--> ?C_INITSEG

MAIN/GPIO                           ----- -----  002BH 0030H
  +--> OLED_INIT/IIC_OLED
  +--> OLED_CLEAR/IIC_OLED
  +--> _OLED_SHOWCHINESE48/IIC_OLED
  +--> INIT_HX711PIN/HX711
  +--> GET_MAOPI/HX711
  +--> _TIMER0_DELAY1MS/DELAY
  +--> RAND/RAND
  +--> _OLED_SHOWCHAR48/IIC_OLED
  +--> GET_WEIGHT/HX711

OLED_INIT/IIC_OLED                  ----- -----  ----- -----
  +--> INIT_I2C/IIC_OLED
  +--> _TIMER0_DELAY1MS/DELAY
  +--> _OLED_WR_BYTE/IIC_OLED

INIT_I2C/IIC_OLED                   ----- -----  ----- -----

_TIMER0_DELAY1MS/DELAY              ----- -----  0031H 0034H

_OLED_WR_BYTE/IIC_OLED              ----- -----  ----- -----
  +--> _WRITE_IIC_DATA/IIC_OLED
  +--> _WRITE_IIC_COMMAND/IIC_OLED

_WRITE_IIC_DATA/IIC_OLED            ----- -----  ----- -----
  +--> _WRITE_IIC_BYTE/IIC_OLED
  +--> IIC_WAIT_ACK/IIC_OLED
  +--> IIC_STOP/IIC_OLED

_WRITE_IIC_BYTE/IIC_OLED            ----- -----  ----- -----
  +--> IIC_START/IIC_OLED

IIC_START/IIC_OLED                  ----- -----  ----- -----

IIC_WAIT_ACK/IIC_OLED               ----- -----  ----- -----
  +--> _WRITE_IIC_BYTE/IIC_OLED

IIC_STOP/IIC_OLED                   ----- -----  ----- -----

_WRITE_IIC_COMMAND/IIC_OLED         ----- -----  ----- -----
  +--> _WRITE_IIC_BYTE/IIC_OLED
  +--> IIC_WAIT_ACK/IIC_OLED
LX51 LINKER/LOCATER V4.66.93.0                                                        01/30/2021  20:27:41  PAGE 4


  +--> IIC_STOP/IIC_OLED

OLED_CLEAR/IIC_OLED                 ----- -----  ----- -----
  +--> _OLED_WR_BYTE/IIC_OLED

_OLED_SHOWCHINESE48/IIC_OLED        ----- -----  0031H 0033H
  +--> _OLED_SET_POS/IIC_OLED
  +--> _OLED_WR_BYTE/IIC_OLED

_OLED_SET_POS/IIC_OLED              ----- -----  ----- -----
  +--> _OLED_WR_BYTE/IIC_OLED

INIT_HX711PIN/HX711                 ----- -----  ----- -----

GET_MAOPI/HX711                     ----- -----  ----- -----
  +--> HX711_READ/HX711

HX711_READ/HX711                    ----- -----  0031H 0034H

RAND/RAND                           ----- -----  ----- -----

_OLED_SHOWCHAR48/IIC_OLED           ----- -----  0031H 0033H
  +--> _OLED_SET_POS/IIC_OLED
  +--> _OLED_WR_BYTE/IIC_OLED

GET_WEIGHT/HX711                    ----- -----  ----- -----
  +--> HX711_READ/HX711

?C_INITSEG                          ----- -----  ----- -----



PUBLIC SYMBOLS OF MODULE:  .\Output\GPIO (GPIO)


      VALUE       CLASS    TYPE      PUBLIC SYMBOL NAME
      =================================================
      0000003BH   DATA     BYTE      ?_OLED_CleanBMPexp?BYTE
      00000015H   DATA     BYTE      ?_OLED_DrawBMP?BYTE
      00000021H   DATA     BYTE      ?_OLED_ShowBMPexp?BYTE
      010000E1H   CODE     ---       ?C?CASTF
      01000162H   CODE     ---       ?C?CLDOPTR
      00000000H   NUMBER   ---       ?C?CODESEG
      010000ADH   CODE     ---       ?C?FCASTC
      010000A8H   CODE     ---       ?C?FCASTI
      010000A3H   CODE     ---       ?C?FCASTL
      01000006H   CODE     ---       ?C?FPDIV
      01000118H   CODE     ---       ?C?FPGETOPN2
      0100014DH   CODE     ---       ?C?FPNANRESULT
      01000157H   CODE     ---       ?C?FPOVERFLOW
      0100012FH   CODE     ---       ?C?FPRESULT
      01000143H   CODE     ---       ?C?FPRESULT2
      01000154H   CODE     ---       ?C?FPUNDERFLOW
      0100018FH   CODE     ---       ?C?IMUL
      010002A5H   CODE     ---       ?C?LNEG
      010002D7H   CODE     ---       ?C?LSHL
      010001A1H   CODE     ---       ?C?SIDIV
      010002EAH   CODE     ---       ?C?UIDIV
      010002B3H   CODE     ---       ?C?ULCMP
      01000213H   CODE     ---       ?C?ULDIV
      010002C4H   CODE     ---       ?C?ULSHR
      00000000H   NUMBER   ---       ?C?XDATASEG
      01000566H   CODE     ---       ?C_START
      01000000H   CODE     ---       ?C_STARTUP
      0000005CH   DATA     ---       ?SRAND?BYTE
LX51 LINKER/LOCATER V4.66.93.0                                                        01/30/2021  20:27:41  PAGE 5


      01000D97H   CODE     ---       _Delay__hx711_us
      01000BD0H   CODE     ---       _InitialUART0_Timer1
      01000697H   CODE     ---       _InitialUART0_Timer3
      01000832H   CODE     ---       _InitialUART1_Timer3
      0100095CH   CODE     ---       _OLED_CleanBMPexp
      01000768H   CODE     ---       _OLED_DrawBMP
      01000CB9H   CODE     ---       _oled_pow
      01000C97H   CODE     ---       _OLED_Set_Pos
      010005ABH   CODE     ---       _OLED_ShowBMPexp
      010008F9H   CODE     ---       _OLED_ShowChar48
      01000627H   CODE     ---       _OLED_ShowCHinese
      01000896H   CODE     ---       _OLED_ShowCHinese48
      01000D28H   CODE     ---       _OLED_WR_Byte
      01000D78H   CODE     ---       _Send_Data_To_UART0
      01000D88H   CODE     ---       _Send_Data_To_UART1
      01000AE4H   CODE     ---       _SRAND
      01000AEFH   CODE     ---       _Timer0_Delay100us
      01000B3AH   CODE     ---       _Timer0_Delay1ms
      01000B85H   CODE     ---       _Timer1_Delay10ms
      01000A54H   CODE     ---       _Timer2_Delay500us
      010009B4H   CODE     ---       _Timer3_Delay100ms
      01000A04H   CODE     ---       _Timer3_Delay10us
      01000C44H   CODE     ---       _Write_IIC_Byte
      01000D32H   CODE     ---       _Write_IIC_Command
      01000D40H   CODE     ---       _Write_IIC_Data
*SFR* 000000C0H.2 DATA     BIT       AA
      00000039H   DATA     INT       aaa
*SFR* 000000D0H.6 DATA     BIT       AC
*SFR* 000000E0H   DATA     BYTE      ACC
*SFR* 000000E8H   DATA     BYTE      ADCCON0
*SFR* 000000E1H   DATA     BYTE      ADCCON1
*SFR* 000000E2H   DATA     BYTE      ADCCON2
*SFR* 000000E3H   DATA     BYTE      ADCDLY
*SFR* 000000E8H.7 DATA     BIT       ADCF
*SFR* 000000E8H.0 DATA     BIT       ADCHS0
*SFR* 000000E8H.1 DATA     BIT       ADCHS1
*SFR* 000000E8H.2 DATA     BIT       ADCHS2
*SFR* 000000E8H.3 DATA     BIT       ADCHS3
*SFR* 000000CFH   DATA     BYTE      ADCMPH
*SFR* 000000CEH   DATA     BYTE      ADCMPL
*SFR* 000000C3H   DATA     BYTE      ADCRH
*SFR* 000000C2H   DATA     BYTE      ADCRL
*SFR* 000000E8H.6 DATA     BIT       ADCS
*SFR* 000000F6H   DATA     BYTE      AINDIDS
*SFR* 000000A2H   DATA     BYTE      AUXR1
*SFR* 000000F0H   DATA     BYTE      B
      00000020H.0 BIT      BIT       BIT_TMP
*SFR* 000000A3H   DATA     BYTE      BODCON0
*SFR* 000000ABH   DATA     BYTE      BODCON1
*SFR* 000000E5H   DATA     BYTE      C0H
*SFR* 000000E4H   DATA     BYTE      C0L
*SFR* 000000E7H   DATA     BYTE      C1H
*SFR* 000000E6H   DATA     BYTE      C1L
*SFR* 000000EEH   DATA     BYTE      C2H
*SFR* 000000EDH   DATA     BYTE      C2L
*SFR* 00000092H   DATA     BYTE      CAPCON0
*SFR* 00000093H   DATA     BYTE      CAPCON1
*SFR* 00000094H   DATA     BYTE      CAPCON2
*SFR* 000000F1H   DATA     BYTE      CAPCON3
*SFR* 000000F2H   DATA     BYTE      CAPCON4
*SFR* 0000009FH   DATA     BYTE      CHPCON
*SFR* 0000008EH   DATA     BYTE      CKCON
*SFR* 00000095H   DATA     BYTE      CKDIV
*SFR* 00000097H   DATA     BYTE      CKEN
*SFR* 00000096H   DATA     BYTE      CKSWT
LX51 LINKER/LOCATER V4.66.93.0                                                        01/30/2021  20:27:41  PAGE 6


*SFR* 000000D8H.4 DATA     BIT       CLRPWM
*SFR* 000000C8H.0 DATA     BIT       CM_RL2
*SFR* 000000D0H.7 DATA     BIT       CY
*SFR* 00000083H   DATA     BYTE      DPH
*SFR* 00000082H   DATA     BYTE      DPL
*SFR* 000000A8H.7 DATA     BIT       EA
*SFR* 000000A8H.6 DATA     BIT       EADC
*SFR* 000000A8H.5 DATA     BIT       EBOD
*SFR* 0000009BH   DATA     BYTE      EIE
*SFR* 0000009CH   DATA     BYTE      EIE1
*SFR* 000000EFH   DATA     BYTE      EIP
*SFR* 000000FEH   DATA     BYTE      EIP1
*SFR* 000000F7H   DATA     BYTE      EIPH
*SFR* 000000FFH   DATA     BYTE      EIPH1
*SFR* 000000A8H.4 DATA     BIT       ES
*SFR* 000000A8H.1 DATA     BIT       ET0
*SFR* 000000A8H.3 DATA     BIT       ET1
*SFR* 000000E8H.4 DATA     BIT       ETGSEL0
*SFR* 000000E8H.5 DATA     BIT       ETGSEL1
*SFR* 000000A8H.0 DATA     BIT       EX0
*SFR* 000000A8H.2 DATA     BIT       EX1
*SFR* 000000D0H.5 DATA     BIT       F0
      01000DA2H   CONST    ---       F6x8
*SFR* 000000D7H   DATA     BYTE      FBD
*SFR* 00000098H.7 DATA     BIT       FE
*SFR* 000000F8H.7 DATA     BIT       FE_1
      00000010H   DATA     BYTE      Flag_Error
      01000D5BH   CODE     ---       Get_Maopi
      010007CDH   CODE     ---       Get_Weight
      01000DA8H   CONST    ---       hanzi48
      00000011H   DATA     DWORD     HX711_Buffer
      01000700H   CODE     ---       HX711_Read
      010015E8H   CONST    ---       Hzk
*SFR* 000000C1H   DATA     BYTE      I2ADDR
      00000020H.1 BIT      BIT       I2C_Reset_Flag
*SFR* 000000C0H.6 DATA     BIT       I2CEN
*SFR* 000000BEH   DATA     BYTE      I2CLK
*SFR* 000000C0H   DATA     BYTE      I2CON
*SFR* 000000C0H.0 DATA     BIT       I2CPX
*SFR* 000000BCH   DATA     BYTE      I2DAT
*SFR* 000000BDH   DATA     BYTE      I2STAT
*SFR* 000000BFH   DATA     BYTE      I2TOC
*SFR* 000000A7H   DATA     BYTE      IAPAH
*SFR* 000000A6H   DATA     BYTE      IAPAL
*SFR* 000000AFH   DATA     BYTE      IAPCN
*SFR* 000000AEH   DATA     BYTE      IAPFD
*SFR* 000000A4H   DATA     BYTE      IAPTRG
*SFR* 000000A5H   DATA     BYTE      IAPUEN
*SFR* 000000A8H   DATA     BYTE      IE
*SFR* 00000088H.1 DATA     BIT       IE0
*SFR* 00000088H.3 DATA     BIT       IE1
      01000D67H   CODE     ---       IIC_Start
      01000D90H   CODE     ---       IIC_Stop
      01000D06H   CODE     ---       IIC_Wait_Ack
      01000D4EH   CODE     ---       Init_HX711pin
      01000D0EH   CODE     ---       Init_I2C
*SFR* 000000B8H   DATA     BYTE      IP
*SFR* 000000B7H   DATA     BYTE      IPH
*SFR* 00000088H.0 DATA     BIT       IT0
*SFR* 00000088H.2 DATA     BIT       IT1
*SFR* 000000D8H.6 DATA     BIT       LOAD
      0100033FH   CODE     ---       main
*SFR* 00000080H.1 DATA     BIT       MISO
*SFR* 00000080H.0 DATA     BIT       MOSI
      01000C09H   CODE     ---       OLED_Clear
LX51 LINKER/LOCATER V4.66.93.0                                                        01/30/2021  20:27:41  PAGE 7


      01000CE6H   CODE     ---       OLED_Display_Off
      01000CD1H   CODE     ---       OLED_Display_On
      01000446H   CODE     ---       OLED_Init
      01000C6EH   CODE     ---       OLED_Scroll
*SFR* 000000D0H.2 DATA     BIT       OV
*SFR* 000000D0H.0 DATA     BIT       P
*SFR* 00000080H   DATA     BYTE      P0
*SFR* 00000080H.0 DATA     BIT       P00
*SFR* 00000080H.1 DATA     BIT       P01
*SFR* 00000080H.2 DATA     BIT       P02
*SFR* 00000080H.3 DATA     BIT       P03
*SFR* 00000080H.4 DATA     BIT       P04
*SFR* 00000080H.5 DATA     BIT       P05
*SFR* 00000080H.6 DATA     BIT       P06
*SFR* 00000080H.7 DATA     BIT       P07
*SFR* 000000B1H   DATA     BYTE      P0M1
*SFR* 000000B2H   DATA     BYTE      P0M2
*SFR* 000000B1H   DATA     BYTE      P0S
*SFR* 000000B2H   DATA     BYTE      P0SR
*SFR* 00000090H   DATA     BYTE      P1
*SFR* 00000090H.0 DATA     BIT       P10
*SFR* 00000090H.1 DATA     BIT       P11
*SFR* 00000090H.2 DATA     BIT       P12
*SFR* 00000090H.3 DATA     BIT       P13
*SFR* 00000090H.4 DATA     BIT       P14
*SFR* 00000090H.5 DATA     BIT       P15
*SFR* 00000090H.6 DATA     BIT       P16
*SFR* 00000090H.7 DATA     BIT       P17
*SFR* 000000B3H   DATA     BYTE      P1M1
*SFR* 000000B4H   DATA     BYTE      P1M2
*SFR* 000000B3H   DATA     BYTE      P1S
*SFR* 000000B4H   DATA     BYTE      P1SR
*SFR* 000000A0H   DATA     BYTE      P2
*SFR* 000000A0H.0 DATA     BIT       P20
*SFR* 000000B5H   DATA     BYTE      P2S
*SFR* 000000B0H   DATA     BYTE      P3
*SFR* 000000B0H.0 DATA     BIT       P30
*SFR* 000000ACH   DATA     BYTE      P3M1
*SFR* 000000ADH   DATA     BYTE      P3M2
*SFR* 000000ACH   DATA     BYTE      P3S
*SFR* 000000ADH   DATA     BYTE      P3SR
*SFR* 000000B8H.6 DATA     BIT       PADC
*SFR* 000000B8H.5 DATA     BIT       PBOD
*SFR* 00000087H   DATA     BYTE      PCON
*SFR* 000000FAH   DATA     BYTE      PDTCNT
*SFR* 000000F9H   DATA     BYTE      PDTEN
*SFR* 000000E9H   DATA     BYTE      PICON
*SFR* 000000ECH   DATA     BYTE      PIF
*SFR* 000000EAH   DATA     BYTE      PINEN
*SFR* 000000DEH   DATA     BYTE      PIOCON0
*SFR* 000000C6H   DATA     BYTE      PIOCON1
*SFR* 000000EBH   DATA     BYTE      PIPEN
*SFR* 000000FCH   DATA     BYTE      PMD
*SFR* 000000FBH   DATA     BYTE      PMEN
*SFR* 000000D6H   DATA     BYTE      PNP
*SFR* 000000B8H.4 DATA     BIT       PS
*SFR* 000000D0H   DATA     BYTE      PSW
*SFR* 000000B8H.1 DATA     BIT       PT0
*SFR* 000000B8H.3 DATA     BIT       PT1
*SFR* 000000D2H   DATA     BYTE      PWM0H
*SFR* 000000DAH   DATA     BYTE      PWM0L
*SFR* 000000D3H   DATA     BYTE      PWM1H
*SFR* 000000DBH   DATA     BYTE      PWM1L
*SFR* 000000D4H   DATA     BYTE      PWM2H
*SFR* 000000DCH   DATA     BYTE      PWM2L
LX51 LINKER/LOCATER V4.66.93.0                                                        01/30/2021  20:27:41  PAGE 8


*SFR* 000000D5H   DATA     BYTE      PWM3H
*SFR* 000000DDH   DATA     BYTE      PWM3L
*SFR* 000000C4H   DATA     BYTE      PWM4H
*SFR* 000000CCH   DATA     BYTE      PWM4L
*SFR* 000000C5H   DATA     BYTE      PWM5H
*SFR* 000000CDH   DATA     BYTE      PWM5L
*SFR* 000000D8H   DATA     BYTE      PWMCON0
*SFR* 000000DFH   DATA     BYTE      PWMCON1
*SFR* 000000D8H.5 DATA     BIT       PWMF
*SFR* 000000B7H   DATA     BYTE      PWMINTC
*SFR* 000000D1H   DATA     BYTE      PWMPH
*SFR* 000000D9H   DATA     BYTE      PWMPL
*SFR* 000000D8H.7 DATA     BIT       PWMRUN
*SFR* 000000B8H.0 DATA     BIT       PX0
*SFR* 000000B8H.2 DATA     BIT       PX1
      01000AA2H   CODE     ---       RAND
*SFR* 00000098H.2 DATA     BIT       RB8
*SFR* 000000F8H.2 DATA     BIT       RB8_1
*SFR* 000000CBH   DATA     BYTE      RCMP2H
*SFR* 000000CAH   DATA     BYTE      RCMP2L
*SFR* 00000084H   DATA     BYTE      RCTRIM0
*SFR* 00000085H   DATA     BYTE      RCTRIM1
      01000D70H   CODE     ---       Receive_Data_From_UART0
      01000D80H   CODE     ---       Receive_Data_From_UART1
*SFR* 00000098H.4 DATA     BIT       REN
*SFR* 000000F8H.4 DATA     BIT       REN_1
*SFR* 000000C6H   DATA     BYTE      RH3
*SFR* 00000098H.0 DATA     BIT       RI
*SFR* 000000F8H.0 DATA     BIT       RI_1
*SFR* 000000C5H   DATA     BYTE      RL3
*SFR* 000000D0H.3 DATA     BIT       RS0
*SFR* 000000D0H.4 DATA     BIT       RS1
*SFR* 00000086H   DATA     BYTE      RWK
*SFR* 00000080H.7 DATA     BIT       RXD
*SFR* 00000080H.2 DATA     BIT       RXD_1
*SFR* 000000A9H   DATA     BYTE      SADDR
*SFR* 000000BBH   DATA     BYTE      SADDR_1
*SFR* 000000B9H   DATA     BYTE      SADEN
*SFR* 000000BAH   DATA     BYTE      SADEN_1
*SFR* 00000099H   DATA     BYTE      SBUF
*SFR* 0000009AH   DATA     BYTE      SBUF_1
*SFR* 00000090H.3 DATA     BIT       SCL
*SFR* 00000098H   DATA     BYTE      SCON
*SFR* 000000F8H   DATA     BYTE      SCON_1
*SFR* 00000090H.4 DATA     BIT       SDA
*SFR* 00000091H   DATA     BYTE      SFRS
*SFR* 000000C0H.3 DATA     BIT       SI
*SFR* 00000098H.7 DATA     BIT       SM0
*SFR* 000000F8H.7 DATA     BIT       SM0_1
*SFR* 00000098H.6 DATA     BIT       SM1
*SFR* 000000F8H.6 DATA     BIT       SM1_1
*SFR* 00000098H.5 DATA     BIT       SM2
*SFR* 000000F8H.5 DATA     BIT       SM2_1
*SFR* 00000081H   DATA     BYTE      SP
*SFR* 000000F3H   DATA     BYTE      SPCR
*SFR* 000000F3H   DATA     BYTE      SPCR2
*SFR* 000000F5H   DATA     BYTE      SPDR
*SFR* 000000F4H   DATA     BYTE      SPSR
*SFR* 000000C0H.5 DATA     BIT       STA
*SFR* 00000080H.4 DATA     BIT       STADC
*SFR* 000000C0H.4 DATA     BIT       STO
*SFR* 000000C8H   DATA     BYTE      T2CON
*SFR* 000000C9H   DATA     BYTE      T2MOD
*SFR* 000000C4H   DATA     BYTE      T3CON
*SFR* 000000C7H   DATA     BYTE      TA
LX51 LINKER/LOCATER V4.66.93.0                                                        01/30/2021  20:27:41  PAGE 9


*SFR* 00000098H.3 DATA     BIT       TB8
*SFR* 000000F8H.3 DATA     BIT       TB8_1
*SFR* 00000088H   DATA     BYTE      TCON
*SFR* 00000088H.5 DATA     BIT       TF0
*SFR* 00000088H.7 DATA     BIT       TF1
*SFR* 000000C8H.7 DATA     BIT       TF2
*SFR* 0000008CH   DATA     BYTE      TH0
*SFR* 0000008DH   DATA     BYTE      TH1
*SFR* 000000CDH   DATA     BYTE      TH2
*SFR* 00000098H.1 DATA     BIT       TI
*SFR* 000000F8H.1 DATA     BIT       TI_1
*SFR* 0000008AH   DATA     BYTE      TL0
*SFR* 0000008BH   DATA     BYTE      TL1
*SFR* 000000CCH   DATA     BYTE      TL2
*SFR* 00000089H   DATA     BYTE      TMOD
*SFR* 00000088H.4 DATA     BIT       TR0
*SFR* 00000088H.6 DATA     BIT       TR1
*SFR* 000000C8H.2 DATA     BIT       TR2
*SFR* 00000080H.6 DATA     BIT       TXD
*SFR* 00000090H.6 DATA     BIT       TXD_1
*SFR* 000000AAH   DATA     BYTE      WDCON
      00000008H   DATA     DWORD     Weight_Maopi
      0000000CH   DATA     LONG      Weight_Shiwu
*SFR* 0000008FH   DATA     BYTE      WKCON
      00000035H   DATA     DWORD     zhongl
      01001168H   CONST    ---       zifu48



SYMBOL TABLE OF MODULE:  .\Output\GPIO (GPIO)

      VALUE       REP       CLASS    TYPE      SYMBOL NAME
      ====================================================
      ---         MODULE    ---      ---       GPIO
      00000039H   PUBLIC    DATA     INT       aaa
      00000035H   PUBLIC    DATA     DWORD     zhongl
      0100033FH   PUBLIC    CODE     ---       main
      000000F6H   SFRSYM    DATA     BYTE      AINDIDS
      000000B1H   SFRSYM    DATA     BYTE      P0M1
      00000080H.2 SFRSYM    DATA     BIT       RXD_1
      000000B3H   SFRSYM    DATA     BYTE      P1M1
      000000B2H   SFRSYM    DATA     BYTE      P0M2
      00000080H   SFRSYM    DATA     BYTE      P0
      000000BBH   SFRSYM    DATA     BYTE      SADDR_1
      000000B4H   SFRSYM    DATA     BYTE      P1M2
      00000090H   SFRSYM    DATA     BYTE      P1
      00000090H.6 SFRSYM    DATA     BIT       TXD_1
      000000C0H.2 SFRSYM    DATA     BIT       AA
      000000ACH   SFRSYM    DATA     BYTE      P3M1
      000000A0H   SFRSYM    DATA     BYTE      P2
      000000B0H   SFRSYM    DATA     BYTE      P3
      000000ADH   SFRSYM    DATA     BYTE      P3M2
      000000D0H.6 SFRSYM    DATA     BIT       AC
      0000008FH   SFRSYM    DATA     BYTE      WKCON
      00000084H   SFRSYM    DATA     BYTE      RCTRIM0
      0000009CH   SFRSYM    DATA     BYTE      EIE1
      00000085H   SFRSYM    DATA     BYTE      RCTRIM1
      000000A8H.7 SFRSYM    DATA     BIT       EA
      000000D8H   SFRSYM    DATA     BYTE      PWMCON0
      000000DFH   SFRSYM    DATA     BYTE      PWMCON1
      00000098H.7 SFRSYM    DATA     BIT       FE
      000000A8H.6 SFRSYM    DATA     BIT       EADC
      000000D1H   SFRSYM    DATA     BYTE      PWMPH
      000000A8H   SFRSYM    DATA     BYTE      IE
      00000096H   SFRSYM    DATA     BYTE      CKSWT
LX51 LINKER/LOCATER V4.66.93.0                                                        01/30/2021  20:27:41  PAGE 10


      000000E8H.7 SFRSYM    DATA     BIT       ADCF
      000000FEH   SFRSYM    DATA     BYTE      EIP1
      000000D9H   SFRSYM    DATA     BYTE      PWMPL
      000000E8H.0 SFRSYM    DATA     BIT       ADCHS0
      000000C7H   SFRSYM    DATA     BYTE      TA
      000000E8H.1 SFRSYM    DATA     BIT       ADCHS1
      000000E8H.2 SFRSYM    DATA     BIT       ADCHS2
      000000A8H.4 SFRSYM    DATA     BIT       ES
      000000E8H.3 SFRSYM    DATA     BIT       ADCHS3
      000000C1H   SFRSYM    DATA     BYTE      I2ADDR
      000000B8H.6 SFRSYM    DATA     BIT       PADC
      000000B8H   SFRSYM    DATA     BYTE      IP
      00000098H.0 SFRSYM    DATA     BIT       RI
      000000A8H.5 SFRSYM    DATA     BIT       EBOD
      000000C0H.3 SFRSYM    DATA     BIT       SI
      000000D0H.7 SFRSYM    DATA     BIT       CY
      000000E8H.6 SFRSYM    DATA     BIT       ADCS
      000000F8H.7 SFRSYM    DATA     BIT       FE_1
      00000098H.1 SFRSYM    DATA     BIT       TI
      000000D8H.6 SFRSYM    DATA     BIT       LOAD
      00000097H   SFRSYM    DATA     BYTE      CKEN
      000000B8H.4 SFRSYM    DATA     BIT       PS
      00000081H   SFRSYM    DATA     BYTE      SP
      000000D0H.2 SFRSYM    DATA     BIT       OV
      000000B7H   SFRSYM    DATA     BYTE      PWMINTC
      000000B8H.5 SFRSYM    DATA     BIT       PBOD
      000000B2H   SFRSYM    DATA     BYTE      P0SR
      000000F7H   SFRSYM    DATA     BYTE      EIPH
      000000B4H   SFRSYM    DATA     BYTE      P1SR
      000000ADH   SFRSYM    DATA     BYTE      P3SR
      000000F8H.0 SFRSYM    DATA     BIT       RI_1
      000000F8H.1 SFRSYM    DATA     BIT       TI_1
      000000CBH   SFRSYM    DATA     BYTE      RCMP2H
      000000CFH   SFRSYM    DATA     BYTE      ADCMPH
      00000080H.0 SFRSYM    DATA     BIT       P00
      00000080H.1 SFRSYM    DATA     BIT       P01
      00000090H.0 SFRSYM    DATA     BIT       P10
      000000FBH   SFRSYM    DATA     BYTE      PMEN
      00000099H   SFRSYM    DATA     BYTE      SBUF
      00000087H   SFRSYM    DATA     BYTE      PCON
      00000080H.2 SFRSYM    DATA     BIT       P02
      00000090H.1 SFRSYM    DATA     BIT       P11
      000000A0H.0 SFRSYM    DATA     BIT       P20
      000000CAH   SFRSYM    DATA     BYTE      RCMP2L
      00000080H.3 SFRSYM    DATA     BIT       P03
      00000090H.2 SFRSYM    DATA     BIT       P12
      000000B0H.0 SFRSYM    DATA     BIT       P30
      000000E3H   SFRSYM    DATA     BYTE      ADCDLY
      000000CEH   SFRSYM    DATA     BYTE      ADCMPL
      00000080H.4 SFRSYM    DATA     BIT       P04
      00000090H.3 SFRSYM    DATA     BIT       P13
      00000098H   SFRSYM    DATA     BYTE      SCON
      00000080H.5 SFRSYM    DATA     BIT       P05
      00000090H.4 SFRSYM    DATA     BIT       P14
      00000089H   SFRSYM    DATA     BYTE      TMOD
      00000088H   SFRSYM    DATA     BYTE      TCON
      00000080H.6 SFRSYM    DATA     BIT       P06
      00000090H.5 SFRSYM    DATA     BIT       P15
      00000080H.7 SFRSYM    DATA     BIT       P07
      00000090H.6 SFRSYM    DATA     BIT       P16
      00000090H.7 SFRSYM    DATA     BIT       P17
      00000080H.0 SFRSYM    DATA     BIT       MOSI
      00000080H.1 SFRSYM    DATA     BIT       MISO
      000000F3H   SFRSYM    DATA     BYTE      SPCR
      000000BDH   SFRSYM    DATA     BYTE      I2STAT
LX51 LINKER/LOCATER V4.66.93.0                                                        01/30/2021  20:27:41  PAGE 11


      000000F5H   SFRSYM    DATA     BYTE      SPDR
      000000D8H.5 SFRSYM    DATA     BIT       PWMF
      000000E5H   SFRSYM    DATA     BYTE      C0H
      000000E7H   SFRSYM    DATA     BYTE      C1H
      000000EEH   SFRSYM    DATA     BYTE      C2H
      0000009FH   SFRSYM    DATA     BYTE      CHPCON
      00000088H.1 SFRSYM    DATA     BIT       IE0
      00000088H.3 SFRSYM    DATA     BIT       IE1
      000000E4H   SFRSYM    DATA     BYTE      C0L
      00000091H   SFRSYM    DATA     BYTE      SFRS
      000000E6H   SFRSYM    DATA     BYTE      C1L
      000000C8H.0 SFRSYM    DATA     BIT       CM_RL2
      000000F0H   SFRSYM    DATA     BYTE      B
      000000EDH   SFRSYM    DATA     BYTE      C2L
      0000009AH   SFRSYM    DATA     BYTE      SBUF_1
      000000A5H   SFRSYM    DATA     BYTE      IAPUEN
      000000F8H   SFRSYM    DATA     BYTE      SCON_1
      000000E0H   SFRSYM    DATA     BYTE      ACC
      000000A8H.1 SFRSYM    DATA     BIT       ET0
      000000F4H   SFRSYM    DATA     BYTE      SPSR
      000000A4H   SFRSYM    DATA     BYTE      IAPTRG
      00000088H.5 SFRSYM    DATA     BIT       TF0
      000000A8H.3 SFRSYM    DATA     BIT       ET1
      00000088H.7 SFRSYM    DATA     BIT       TF1
      00000098H.2 SFRSYM    DATA     BIT       RB8
      000000C8H.7 SFRSYM    DATA     BIT       TF2
      000000D7H   SFRSYM    DATA     BYTE      FBD
      0000008CH   SFRSYM    DATA     BYTE      TH0
      00000088H.0 SFRSYM    DATA     BIT       IT0
      000000A8H.0 SFRSYM    DATA     BIT       EX0
      000000C6H   SFRSYM    DATA     BYTE      RH3
      0000008DH   SFRSYM    DATA     BYTE      TH1
      00000088H.2 SFRSYM    DATA     BIT       IT1
      00000098H.3 SFRSYM    DATA     BIT       TB8
      000000A8H.2 SFRSYM    DATA     BIT       EX1
      000000CDH   SFRSYM    DATA     BYTE      TH2
      000000D0H.0 SFRSYM    DATA     BIT       P
      000000FAH   SFRSYM    DATA     BYTE      PDTCNT
      00000098H.7 SFRSYM    DATA     BIT       SM0
      0000008AH   SFRSYM    DATA     BYTE      TL0
      00000098H.6 SFRSYM    DATA     BIT       SM1
      000000C5H   SFRSYM    DATA     BYTE      RL3
      0000008BH   SFRSYM    DATA     BYTE      TL1
      00000098H.5 SFRSYM    DATA     BIT       SM2
      000000C0H.6 SFRSYM    DATA     BIT       I2CEN
      000000CCH   SFRSYM    DATA     BYTE      TL2
      000000B1H   SFRSYM    DATA     BYTE      P0S
      0000009BH   SFRSYM    DATA     BYTE      EIE
      000000B8H.1 SFRSYM    DATA     BIT       PT0
      000000B3H   SFRSYM    DATA     BYTE      P1S
      000000B8H.3 SFRSYM    DATA     BIT       PT1
      000000D0H.3 SFRSYM    DATA     BIT       RS0
      000000BCH   SFRSYM    DATA     BYTE      I2DAT
      000000B5H   SFRSYM    DATA     BYTE      P2S
      00000088H.4 SFRSYM    DATA     BIT       TR0
      000000D0H.4 SFRSYM    DATA     BIT       RS1
      000000BEH   SFRSYM    DATA     BYTE      I2CLK
      000000ACH   SFRSYM    DATA     BYTE      P3S
      00000088H.6 SFRSYM    DATA     BIT       TR1
      000000D8H.4 SFRSYM    DATA     BIT       CLRPWM
      00000090H.4 SFRSYM    DATA     BIT       SDA
      000000B8H.0 SFRSYM    DATA     BIT       PX0
      000000C8H.2 SFRSYM    DATA     BIT       TR2
      000000FFH   SFRSYM    DATA     BYTE      EIPH1
      000000B8H.2 SFRSYM    DATA     BIT       PX1
LX51 LINKER/LOCATER V4.66.93.0                                                        01/30/2021  20:27:41  PAGE 12


      000000E8H   SFRSYM    DATA     BYTE      ADCCON0
      000000E1H   SFRSYM    DATA     BYTE      ADCCON1
      000000E2H   SFRSYM    DATA     BYTE      ADCCON2
      000000C0H   SFRSYM    DATA     BYTE      I2CON
      00000083H   SFRSYM    DATA     BYTE      DPH
      000000F8H.2 SFRSYM    DATA     BIT       RB8_1
      000000EFH   SFRSYM    DATA     BYTE      EIP
      000000F8H.3 SFRSYM    DATA     BIT       TB8_1
      000000ECH   SFRSYM    DATA     BYTE      PIF
      00000082H   SFRSYM    DATA     BYTE      DPL
      000000F8H.7 SFRSYM    DATA     BIT       SM0_1
      000000FCH   SFRSYM    DATA     BYTE      PMD
      000000B7H   SFRSYM    DATA     BYTE      IPH
      00000090H.3 SFRSYM    DATA     BIT       SCL
      000000F8H.6 SFRSYM    DATA     BIT       SM1_1
      000000BFH   SFRSYM    DATA     BYTE      I2TOC
      000000F8H.5 SFRSYM    DATA     BIT       SM2_1
      000000C3H   SFRSYM    DATA     BYTE      ADCRH
      000000A7H   SFRSYM    DATA     BYTE      IAPAH
      00000098H.4 SFRSYM    DATA     BIT       REN
      000000AEH   SFRSYM    DATA     BYTE      IAPFD
      00000092H   SFRSYM    DATA     BYTE      CAPCON0
      000000C0H.0 SFRSYM    DATA     BIT       I2CPX
      000000C9H   SFRSYM    DATA     BYTE      T2MOD
      000000C8H   SFRSYM    DATA     BYTE      T2CON
      000000C2H   SFRSYM    DATA     BYTE      ADCRL
      000000A3H   SFRSYM    DATA     BYTE      BODCON0
      00000093H   SFRSYM    DATA     BYTE      CAPCON1
      000000C0H.5 SFRSYM    DATA     BIT       STA
      000000C4H   SFRSYM    DATA     BYTE      T3CON
      000000ABH   SFRSYM    DATA     BYTE      BODCON1
      000000A6H   SFRSYM    DATA     BYTE      IAPAL
      00000094H   SFRSYM    DATA     BYTE      CAPCON2
      000000F1H   SFRSYM    DATA     BYTE      CAPCON3
      000000F2H   SFRSYM    DATA     BYTE      CAPCON4
      000000D8H.7 SFRSYM    DATA     BIT       PWMRUN
      000000F3H   SFRSYM    DATA     BYTE      SPCR2
      000000B9H   SFRSYM    DATA     BYTE      SADEN
      000000AFH   SFRSYM    DATA     BYTE      IAPCN
      000000D2H   SFRSYM    DATA     BYTE      PWM0H
      00000080H.7 SFRSYM    DATA     BIT       RXD
      000000D6H   SFRSYM    DATA     BYTE      PNP
      000000D3H   SFRSYM    DATA     BYTE      PWM1H
      000000D4H   SFRSYM    DATA     BYTE      PWM2H
      000000A9H   SFRSYM    DATA     BYTE      SADDR
      0000008EH   SFRSYM    DATA     BYTE      CKCON
      00000080H.4 SFRSYM    DATA     BIT       STADC
      00000080H.6 SFRSYM    DATA     BIT       TXD
      000000D5H   SFRSYM    DATA     BYTE      PWM3H
      000000DAH   SFRSYM    DATA     BYTE      PWM0L
      000000C4H   SFRSYM    DATA     BYTE      PWM4H
      000000DBH   SFRSYM    DATA     BYTE      PWM1L
      000000C5H   SFRSYM    DATA     BYTE      PWM5H
      000000A2H   SFRSYM    DATA     BYTE      AUXR1
      00000095H   SFRSYM    DATA     BYTE      CKDIV
      000000DCH   SFRSYM    DATA     BYTE      PWM2L
      000000DDH   SFRSYM    DATA     BYTE      PWM3L
      00000086H   SFRSYM    DATA     BYTE      RWK
      000000D0H.5 SFRSYM    DATA     BIT       F0
      000000CCH   SFRSYM    DATA     BYTE      PWM4L
      000000C0H.4 SFRSYM    DATA     BIT       STO
      000000E8H.4 SFRSYM    DATA     BIT       ETGSEL0
      000000F8H.4 SFRSYM    DATA     BIT       REN_1
      000000CDH   SFRSYM    DATA     BYTE      PWM5L
      000000E8H.5 SFRSYM    DATA     BIT       ETGSEL1
LX51 LINKER/LOCATER V4.66.93.0                                                        01/30/2021  20:27:41  PAGE 13


      000000E9H   SFRSYM    DATA     BYTE      PICON
      000000DEH   SFRSYM    DATA     BYTE      PIOCON0
      000000D0H   SFRSYM    DATA     BYTE      PSW
      000000EAH   SFRSYM    DATA     BYTE      PINEN
      000000C6H   SFRSYM    DATA     BYTE      PIOCON1
      000000F9H   SFRSYM    DATA     BYTE      PDTEN
      000000AAH   SFRSYM    DATA     BYTE      WDCON
      000000EBH   SFRSYM    DATA     BYTE      PIPEN
      000000BAH   SFRSYM    DATA     BYTE      SADEN_1

      0100033FH   BLOCK     CODE     ---       LVL=0
      0100033FH   BLOCK     CODE     NEAR LAB  LVL=1
      0000002BH   SYMBOL    DATA     BYTE      a
      0000002CH   SYMBOL    DATA     BYTE      b
      0000002DH   SYMBOL    DATA     BYTE      c
      0000002EH   SYMBOL    DATA     BYTE      d
      0000002FH   SYMBOL    DATA     BYTE      e
      00000030H   SYMBOL    DATA     BYTE      f
      ---         BLOCKEND  ---      ---       LVL=1
      0100033FH   LINE      CODE     ---       #28
      0100033FH   LINE      CODE     ---       #29
      0100033FH   LINE      CODE     ---       #32
      0100034CH   LINE      CODE     ---       #34
      0100034EH   LINE      CODE     ---       #40
      01000351H   LINE      CODE     ---       #41
      01000354H   LINE      CODE     ---       #43
      0100035CH   LINE      CODE     ---       #44
      01000365H   LINE      CODE     ---       #45
      0100036EH   LINE      CODE     ---       #46
      01000377H   LINE      CODE     ---       #48
      0100037AH   LINE      CODE     ---       #50
      0100037DH   LINE      CODE     ---       #52
      0100037DH   LINE      CODE     ---       #53
      0100037DH   LINE      CODE     ---       #54
      01000385H   LINE      CODE     ---       #58
      01000390H   LINE      CODE     ---       #61
      0100039BH   LINE      CODE     ---       #63
      010003A7H   LINE      CODE     ---       #64
      010003B3H   LINE      CODE     ---       #65
      010003BFH   LINE      CODE     ---       #66
      010003CBH   LINE      CODE     ---       #67
      010003D8H   LINE      CODE     ---       #68
      010003E4H   LINE      CODE     ---       #70
      010003E9H   LINE      CODE     ---       #71
      010003E9H   LINE      CODE     ---       #73
      010003ECH   LINE      CODE     ---       #74
      010003F8H   LINE      CODE     ---       #77
      01000404H   LINE      CODE     ---       #78
      01000410H   LINE      CODE     ---       #79
      0100041CH   LINE      CODE     ---       #80
      01000428H   LINE      CODE     ---       #81
      01000434H   LINE      CODE     ---       #82
      01000440H   LINE      CODE     ---       #84
      01000443H   LINE      CODE     ---       #87
      ---         BLOCKEND  ---      ---       LVL=0

      ---         MODULE    ---      ---       DELAY
      00000020H.0 PUBLIC    BIT      BIT       BIT_TMP
      01000A04H   PUBLIC    CODE     ---       _Timer3_Delay10us
      010009B4H   PUBLIC    CODE     ---       _Timer3_Delay100ms
      01000A54H   PUBLIC    CODE     ---       _Timer2_Delay500us
      01000B85H   PUBLIC    CODE     ---       _Timer1_Delay10ms
      01000B3AH   PUBLIC    CODE     ---       _Timer0_Delay1ms
      01000AEFH   PUBLIC    CODE     ---       _Timer0_Delay100us
      000000F6H   SFRSYM    DATA     BYTE      AINDIDS
LX51 LINKER/LOCATER V4.66.93.0                                                        01/30/2021  20:27:41  PAGE 14


      000000B1H   SFRSYM    DATA     BYTE      P0M1
      00000080H.2 SFRSYM    DATA     BIT       RXD_1
      000000B3H   SFRSYM    DATA     BYTE      P1M1
      000000B2H   SFRSYM    DATA     BYTE      P0M2
      00000080H   SFRSYM    DATA     BYTE      P0
      000000BBH   SFRSYM    DATA     BYTE      SADDR_1
      000000B4H   SFRSYM    DATA     BYTE      P1M2
      00000090H   SFRSYM    DATA     BYTE      P1
      00000090H.6 SFRSYM    DATA     BIT       TXD_1
      000000C0H.2 SFRSYM    DATA     BIT       AA
      000000ACH   SFRSYM    DATA     BYTE      P3M1
      000000A0H   SFRSYM    DATA     BYTE      P2
      000000B0H   SFRSYM    DATA     BYTE      P3
      000000ADH   SFRSYM    DATA     BYTE      P3M2
      000000D0H.6 SFRSYM    DATA     BIT       AC
      0000008FH   SFRSYM    DATA     BYTE      WKCON
      00000084H   SFRSYM    DATA     BYTE      RCTRIM0
      0000009CH   SFRSYM    DATA     BYTE      EIE1
      00000085H   SFRSYM    DATA     BYTE      RCTRIM1
      000000A8H.7 SFRSYM    DATA     BIT       EA
      000000D8H   SFRSYM    DATA     BYTE      PWMCON0
      000000DFH   SFRSYM    DATA     BYTE      PWMCON1
      00000098H.7 SFRSYM    DATA     BIT       FE
      000000A8H.6 SFRSYM    DATA     BIT       EADC
      000000D1H   SFRSYM    DATA     BYTE      PWMPH
      000000A8H   SFRSYM    DATA     BYTE      IE
      00000096H   SFRSYM    DATA     BYTE      CKSWT
      000000E8H.7 SFRSYM    DATA     BIT       ADCF
      000000FEH   SFRSYM    DATA     BYTE      EIP1
      000000D9H   SFRSYM    DATA     BYTE      PWMPL
      000000E8H.0 SFRSYM    DATA     BIT       ADCHS0
      000000C7H   SFRSYM    DATA     BYTE      TA
      000000E8H.1 SFRSYM    DATA     BIT       ADCHS1
      000000E8H.2 SFRSYM    DATA     BIT       ADCHS2
      000000A8H.4 SFRSYM    DATA     BIT       ES
      000000E8H.3 SFRSYM    DATA     BIT       ADCHS3
      000000C1H   SFRSYM    DATA     BYTE      I2ADDR
      000000B8H.6 SFRSYM    DATA     BIT       PADC
      000000B8H   SFRSYM    DATA     BYTE      IP
      00000098H.0 SFRSYM    DATA     BIT       RI
      000000A8H.5 SFRSYM    DATA     BIT       EBOD
      000000C0H.3 SFRSYM    DATA     BIT       SI
      000000D0H.7 SFRSYM    DATA     BIT       CY
      000000E8H.6 SFRSYM    DATA     BIT       ADCS
      000000F8H.7 SFRSYM    DATA     BIT       FE_1
      00000098H.1 SFRSYM    DATA     BIT       TI
      000000D8H.6 SFRSYM    DATA     BIT       LOAD
      00000097H   SFRSYM    DATA     BYTE      CKEN
      000000B8H.4 SFRSYM    DATA     BIT       PS
      00000081H   SFRSYM    DATA     BYTE      SP
      000000D0H.2 SFRSYM    DATA     BIT       OV
      000000B7H   SFRSYM    DATA     BYTE      PWMINTC
      000000B8H.5 SFRSYM    DATA     BIT       PBOD
      000000B2H   SFRSYM    DATA     BYTE      P0SR
      000000F7H   SFRSYM    DATA     BYTE      EIPH
      000000B4H   SFRSYM    DATA     BYTE      P1SR
      000000ADH   SFRSYM    DATA     BYTE      P3SR
      000000F8H.0 SFRSYM    DATA     BIT       RI_1
      000000F8H.1 SFRSYM    DATA     BIT       TI_1
      000000CBH   SFRSYM    DATA     BYTE      RCMP2H
      000000CFH   SFRSYM    DATA     BYTE      ADCMPH
      00000080H.0 SFRSYM    DATA     BIT       P00
      00000080H.1 SFRSYM    DATA     BIT       P01
      00000090H.0 SFRSYM    DATA     BIT       P10
      000000FBH   SFRSYM    DATA     BYTE      PMEN
LX51 LINKER/LOCATER V4.66.93.0                                                        01/30/2021  20:27:41  PAGE 15


      00000099H   SFRSYM    DATA     BYTE      SBUF
      00000087H   SFRSYM    DATA     BYTE      PCON
      00000080H.2 SFRSYM    DATA     BIT       P02
      00000090H.1 SFRSYM    DATA     BIT       P11
      000000A0H.0 SFRSYM    DATA     BIT       P20
      000000CAH   SFRSYM    DATA     BYTE      RCMP2L
      00000080H.3 SFRSYM    DATA     BIT       P03
      00000090H.2 SFRSYM    DATA     BIT       P12
      000000B0H.0 SFRSYM    DATA     BIT       P30
      000000E3H   SFRSYM    DATA     BYTE      ADCDLY
      000000CEH   SFRSYM    DATA     BYTE      ADCMPL
      00000080H.4 SFRSYM    DATA     BIT       P04
      00000090H.3 SFRSYM    DATA     BIT       P13
      00000098H   SFRSYM    DATA     BYTE      SCON
      00000080H.5 SFRSYM    DATA     BIT       P05
      00000090H.4 SFRSYM    DATA     BIT       P14
      00000089H   SFRSYM    DATA     BYTE      TMOD
      00000088H   SFRSYM    DATA     BYTE      TCON
      00000080H.6 SFRSYM    DATA     BIT       P06
      00000090H.5 SFRSYM    DATA     BIT       P15
      00000080H.7 SFRSYM    DATA     BIT       P07
      00000090H.6 SFRSYM    DATA     BIT       P16
      00000090H.7 SFRSYM    DATA     BIT       P17
      00000080H.0 SFRSYM    DATA     BIT       MOSI
      00000080H.1 SFRSYM    DATA     BIT       MISO
      000000F3H   SFRSYM    DATA     BYTE      SPCR
      000000BDH   SFRSYM    DATA     BYTE      I2STAT
      000000F5H   SFRSYM    DATA     BYTE      SPDR
      000000D8H.5 SFRSYM    DATA     BIT       PWMF
      000000E5H   SFRSYM    DATA     BYTE      C0H
      000000E7H   SFRSYM    DATA     BYTE      C1H
      000000EEH   SFRSYM    DATA     BYTE      C2H
      0000009FH   SFRSYM    DATA     BYTE      CHPCON
      00000088H.1 SFRSYM    DATA     BIT       IE0
      00000088H.3 SFRSYM    DATA     BIT       IE1
      000000E4H   SFRSYM    DATA     BYTE      C0L
      00000091H   SFRSYM    DATA     BYTE      SFRS
      000000E6H   SFRSYM    DATA     BYTE      C1L
      000000C8H.0 SFRSYM    DATA     BIT       CM_RL2
      000000F0H   SFRSYM    DATA     BYTE      B
      000000EDH   SFRSYM    DATA     BYTE      C2L
      0000009AH   SFRSYM    DATA     BYTE      SBUF_1
      000000A5H   SFRSYM    DATA     BYTE      IAPUEN
      000000F8H   SFRSYM    DATA     BYTE      SCON_1
      000000E0H   SFRSYM    DATA     BYTE      ACC
      000000A8H.1 SFRSYM    DATA     BIT       ET0
      000000F4H   SFRSYM    DATA     BYTE      SPSR
      000000A4H   SFRSYM    DATA     BYTE      IAPTRG
      00000088H.5 SFRSYM    DATA     BIT       TF0
      000000A8H.3 SFRSYM    DATA     BIT       ET1
      00000088H.7 SFRSYM    DATA     BIT       TF1
      00000098H.2 SFRSYM    DATA     BIT       RB8
      000000C8H.7 SFRSYM    DATA     BIT       TF2
      000000D7H   SFRSYM    DATA     BYTE      FBD
      0000008CH   SFRSYM    DATA     BYTE      TH0
      00000088H.0 SFRSYM    DATA     BIT       IT0
      000000A8H.0 SFRSYM    DATA     BIT       EX0
      000000C6H   SFRSYM    DATA     BYTE      RH3
      0000008DH   SFRSYM    DATA     BYTE      TH1
      00000088H.2 SFRSYM    DATA     BIT       IT1
      00000098H.3 SFRSYM    DATA     BIT       TB8
      000000A8H.2 SFRSYM    DATA     BIT       EX1
      000000CDH   SFRSYM    DATA     BYTE      TH2
      000000D0H.0 SFRSYM    DATA     BIT       P
      000000FAH   SFRSYM    DATA     BYTE      PDTCNT
LX51 LINKER/LOCATER V4.66.93.0                                                        01/30/2021  20:27:41  PAGE 16


      00000098H.7 SFRSYM    DATA     BIT       SM0
      0000008AH   SFRSYM    DATA     BYTE      TL0
      00000098H.6 SFRSYM    DATA     BIT       SM1
      000000C5H   SFRSYM    DATA     BYTE      RL3
      0000008BH   SFRSYM    DATA     BYTE      TL1
      00000098H.5 SFRSYM    DATA     BIT       SM2
      000000C0H.6 SFRSYM    DATA     BIT       I2CEN
      000000CCH   SFRSYM    DATA     BYTE      TL2
      000000B1H   SFRSYM    DATA     BYTE      P0S
      0000009BH   SFRSYM    DATA     BYTE      EIE
      000000B8H.1 SFRSYM    DATA     BIT       PT0
      000000B3H   SFRSYM    DATA     BYTE      P1S
      000000B8H.3 SFRSYM    DATA     BIT       PT1
      000000D0H.3 SFRSYM    DATA     BIT       RS0
      000000BCH   SFRSYM    DATA     BYTE      I2DAT
      000000B5H   SFRSYM    DATA     BYTE      P2S
      00000088H.4 SFRSYM    DATA     BIT       TR0
      000000D0H.4 SFRSYM    DATA     BIT       RS1
      000000BEH   SFRSYM    DATA     BYTE      I2CLK
      000000ACH   SFRSYM    DATA     BYTE      P3S
      00000088H.6 SFRSYM    DATA     BIT       TR1
      000000D8H.4 SFRSYM    DATA     BIT       CLRPWM
      00000090H.4 SFRSYM    DATA     BIT       SDA
      000000B8H.0 SFRSYM    DATA     BIT       PX0
      000000C8H.2 SFRSYM    DATA     BIT       TR2
      000000FFH   SFRSYM    DATA     BYTE      EIPH1
      000000B8H.2 SFRSYM    DATA     BIT       PX1
      000000E8H   SFRSYM    DATA     BYTE      ADCCON0
      000000E1H   SFRSYM    DATA     BYTE      ADCCON1
      000000E2H   SFRSYM    DATA     BYTE      ADCCON2
      000000C0H   SFRSYM    DATA     BYTE      I2CON
      00000083H   SFRSYM    DATA     BYTE      DPH
      000000F8H.2 SFRSYM    DATA     BIT       RB8_1
      000000EFH   SFRSYM    DATA     BYTE      EIP
      000000F8H.3 SFRSYM    DATA     BIT       TB8_1
      000000ECH   SFRSYM    DATA     BYTE      PIF
      00000082H   SFRSYM    DATA     BYTE      DPL
      000000F8H.7 SFRSYM    DATA     BIT       SM0_1
      000000FCH   SFRSYM    DATA     BYTE      PMD
      000000B7H   SFRSYM    DATA     BYTE      IPH
      00000090H.3 SFRSYM    DATA     BIT       SCL
      000000F8H.6 SFRSYM    DATA     BIT       SM1_1
      000000BFH   SFRSYM    DATA     BYTE      I2TOC
      000000F8H.5 SFRSYM    DATA     BIT       SM2_1
      000000C3H   SFRSYM    DATA     BYTE      ADCRH
      000000A7H   SFRSYM    DATA     BYTE      IAPAH
      00000098H.4 SFRSYM    DATA     BIT       REN
      000000AEH   SFRSYM    DATA     BYTE      IAPFD
      00000092H   SFRSYM    DATA     BYTE      CAPCON0
      000000C0H.0 SFRSYM    DATA     BIT       I2CPX
      000000C9H   SFRSYM    DATA     BYTE      T2MOD
      000000C8H   SFRSYM    DATA     BYTE      T2CON
      000000C2H   SFRSYM    DATA     BYTE      ADCRL
      000000A3H   SFRSYM    DATA     BYTE      BODCON0
      00000093H   SFRSYM    DATA     BYTE      CAPCON1
      000000C0H.5 SFRSYM    DATA     BIT       STA
      000000C4H   SFRSYM    DATA     BYTE      T3CON
      000000ABH   SFRSYM    DATA     BYTE      BODCON1
      000000A6H   SFRSYM    DATA     BYTE      IAPAL
      00000094H   SFRSYM    DATA     BYTE      CAPCON2
      000000F1H   SFRSYM    DATA     BYTE      CAPCON3
      000000F2H   SFRSYM    DATA     BYTE      CAPCON4
      000000D8H.7 SFRSYM    DATA     BIT       PWMRUN
      000000F3H   SFRSYM    DATA     BYTE      SPCR2
      000000B9H   SFRSYM    DATA     BYTE      SADEN
LX51 LINKER/LOCATER V4.66.93.0                                                        01/30/2021  20:27:41  PAGE 17


      000000AFH   SFRSYM    DATA     BYTE      IAPCN
      000000D2H   SFRSYM    DATA     BYTE      PWM0H
      00000080H.7 SFRSYM    DATA     BIT       RXD
      000000D6H   SFRSYM    DATA     BYTE      PNP
      000000D3H   SFRSYM    DATA     BYTE      PWM1H
      000000D4H   SFRSYM    DATA     BYTE      PWM2H
      000000A9H   SFRSYM    DATA     BYTE      SADDR
      0000008EH   SFRSYM    DATA     BYTE      CKCON
      00000080H.4 SFRSYM    DATA     BIT       STADC
      00000080H.6 SFRSYM    DATA     BIT       TXD
      000000D5H   SFRSYM    DATA     BYTE      PWM3H
      000000DAH   SFRSYM    DATA     BYTE      PWM0L
      000000C4H   SFRSYM    DATA     BYTE      PWM4H
      000000DBH   SFRSYM    DATA     BYTE      PWM1L
      000000C5H   SFRSYM    DATA     BYTE      PWM5H
      000000A2H   SFRSYM    DATA     BYTE      AUXR1
      00000095H   SFRSYM    DATA     BYTE      CKDIV
      000000DCH   SFRSYM    DATA     BYTE      PWM2L
      000000DDH   SFRSYM    DATA     BYTE      PWM3L
      00000086H   SFRSYM    DATA     BYTE      RWK
      000000D0H.5 SFRSYM    DATA     BIT       F0
      000000CCH   SFRSYM    DATA     BYTE      PWM4L
      000000C0H.4 SFRSYM    DATA     BIT       STO
      000000E8H.4 SFRSYM    DATA     BIT       ETGSEL0
      000000F8H.4 SFRSYM    DATA     BIT       REN_1
      000000CDH   SFRSYM    DATA     BYTE      PWM5L
      000000E8H.5 SFRSYM    DATA     BIT       ETGSEL1
      000000E9H   SFRSYM    DATA     BYTE      PICON
      000000DEH   SFRSYM    DATA     BYTE      PIOCON0
      000000D0H   SFRSYM    DATA     BYTE      PSW
      000000EAH   SFRSYM    DATA     BYTE      PINEN
      000000C6H   SFRSYM    DATA     BYTE      PIOCON1
      000000F9H   SFRSYM    DATA     BYTE      PDTEN
      000000AAH   SFRSYM    DATA     BYTE      WDCON
      000000EBH   SFRSYM    DATA     BYTE      PIPEN
      000000BAH   SFRSYM    DATA     BYTE      SADEN_1

      01000AEFH   BLOCK     CODE     ---       LVL=0
      00000040H   SYMBOL    DATA     DWORD     u32CNT
      01000AEFH   LINE      CODE     ---       #22
      01000AF7H   LINE      CODE     ---       #23
      01000AF7H   LINE      CODE     ---       #24
      01000AFAH   LINE      CODE     ---       #25
      01000AFDH   LINE      CODE     ---       #26
      01000AFFH   LINE      CODE     ---       #27
      01000B12H   LINE      CODE     ---       #28
      01000B12H   LINE      CODE     ---       #29
      01000B15H   LINE      CODE     ---       #30
      01000B18H   LINE      CODE     ---       #31
      01000B1BH   LINE      CODE     ---       #32
      01000B1DH   LINE      CODE     ---       #33
      01000B35H   LINE      CODE     ---       #34
      01000B37H   LINE      CODE     ---       #35
      01000B39H   LINE      CODE     ---       #36
      ---         BLOCKEND  ---      ---       LVL=0

      01000B3AH   BLOCK     CODE     ---       LVL=0
      00000031H   SYMBOL    DATA     DWORD     u32CNT
      01000B3AH   LINE      CODE     ---       #38
      01000B42H   LINE      CODE     ---       #39
      01000B42H   LINE      CODE     ---       #40
      01000B45H   LINE      CODE     ---       #41
      01000B48H   LINE      CODE     ---       #42
      01000B4AH   LINE      CODE     ---       #43
      01000B5DH   LINE      CODE     ---       #44
LX51 LINKER/LOCATER V4.66.93.0                                                        01/30/2021  20:27:41  PAGE 18


      01000B5DH   LINE      CODE     ---       #45
      01000B60H   LINE      CODE     ---       #46
      01000B63H   LINE      CODE     ---       #47
      01000B66H   LINE      CODE     ---       #48
      01000B68H   LINE      CODE     ---       #49
      01000B80H   LINE      CODE     ---       #50
      01000B82H   LINE      CODE     ---       #51
      01000B84H   LINE      CODE     ---       #52
      ---         BLOCKEND  ---      ---       LVL=0

      01000B85H   BLOCK     CODE     ---       LVL=0
      00000044H   SYMBOL    DATA     DWORD     u32CNT
      01000B85H   LINE      CODE     ---       #55
      01000B8DH   LINE      CODE     ---       #56
      01000B8DH   LINE      CODE     ---       #57
      01000B90H   LINE      CODE     ---       #58
      01000B93H   LINE      CODE     ---       #59
      01000B95H   LINE      CODE     ---       #60
      01000BA8H   LINE      CODE     ---       #61
      01000BA8H   LINE      CODE     ---       #62
      01000BABH   LINE      CODE     ---       #63
      01000BAEH   LINE      CODE     ---       #64
      01000BB1H   LINE      CODE     ---       #65
      01000BB3H   LINE      CODE     ---       #66
      01000BCBH   LINE      CODE     ---       #67
      01000BCDH   LINE      CODE     ---       #68
      01000BCFH   LINE      CODE     ---       #69
      ---         BLOCKEND  ---      ---       LVL=0

      01000A54H   BLOCK     CODE     ---       LVL=0
      00000048H   SYMBOL    DATA     DWORD     u32CNT
      01000A54H   LINE      CODE     ---       #71
      01000A5CH   LINE      CODE     ---       #72
      01000A5CH   LINE      CODE     ---       #73
      01000A5FH   LINE      CODE     ---       #74
      01000A62H   LINE      CODE     ---       #75
      01000A65H   LINE      CODE     ---       #76
      01000A67H   LINE      CODE     ---       #77
      01000A7AH   LINE      CODE     ---       #78
      01000A7AH   LINE      CODE     ---       #79
      01000A7DH   LINE      CODE     ---       #80
      01000A80H   LINE      CODE     ---       #81
      01000A83H   LINE      CODE     ---       #82
      01000A85H   LINE      CODE     ---       #83
      01000A9DH   LINE      CODE     ---       #84
      01000A9FH   LINE      CODE     ---       #85
      01000AA1H   LINE      CODE     ---       #86
      ---         BLOCKEND  ---      ---       LVL=0

      010009B4H   BLOCK     CODE     ---       LVL=0
      0000004CH   SYMBOL    DATA     DWORD     u32CNT
      010009B4H   LINE      CODE     ---       #88
      010009BCH   LINE      CODE     ---       #89
      010009BCH   LINE      CODE     ---       #90
      010009BFH   LINE      CODE     ---       #91
      010009C2H   LINE      CODE     ---       #92
      010009D5H   LINE      CODE     ---       #93
      010009D5H   LINE      CODE     ---       #94
      010009D8H   LINE      CODE     ---       #95
      010009DBH   LINE      CODE     ---       #96
      010009E3H   LINE      CODE     ---       #97
      010009E6H   LINE      CODE     ---       #98
      010009FEH   LINE      CODE     ---       #99
      01000A00H   LINE      CODE     ---       #100
      01000A03H   LINE      CODE     ---       #101
LX51 LINKER/LOCATER V4.66.93.0                                                        01/30/2021  20:27:41  PAGE 19


      ---         BLOCKEND  ---      ---       LVL=0

      01000A04H   BLOCK     CODE     ---       LVL=0
      00000050H   SYMBOL    DATA     DWORD     u32CNT
      01000A04H   LINE      CODE     ---       #103
      01000A0CH   LINE      CODE     ---       #104
      01000A0CH   LINE      CODE     ---       #105
      01000A0FH   LINE      CODE     ---       #106
      01000A12H   LINE      CODE     ---       #107
      01000A25H   LINE      CODE     ---       #108
      01000A25H   LINE      CODE     ---       #109
      01000A28H   LINE      CODE     ---       #110
      01000A2BH   LINE      CODE     ---       #111
      01000A33H   LINE      CODE     ---       #112
      01000A36H   LINE      CODE     ---       #113
      01000A4EH   LINE      CODE     ---       #114
      01000A50H   LINE      CODE     ---       #115
      01000A53H   LINE      CODE     ---       #116
      ---         BLOCKEND  ---      ---       LVL=0

      ---         MODULE    ---      ---       COMMON
      01000D88H   PUBLIC    CODE     ---       _Send_Data_To_UART1
      01000D80H   PUBLIC    CODE     ---       Receive_Data_From_UART1
      01000832H   PUBLIC    CODE     ---       _InitialUART1_Timer3
      01000D78H   PUBLIC    CODE     ---       _Send_Data_To_UART0
      01000D70H   PUBLIC    CODE     ---       Receive_Data_From_UART0
      01000697H   PUBLIC    CODE     ---       _InitialUART0_Timer3
      01000BD0H   PUBLIC    CODE     ---       _InitialUART0_Timer1
      000000F6H   SFRSYM    DATA     BYTE      AINDIDS
      000000B1H   SFRSYM    DATA     BYTE      P0M1
      00000080H.2 SFRSYM    DATA     BIT       RXD_1
      000000B3H   SFRSYM    DATA     BYTE      P1M1
      000000B2H   SFRSYM    DATA     BYTE      P0M2
      00000080H   SFRSYM    DATA     BYTE      P0
      000000BBH   SFRSYM    DATA     BYTE      SADDR_1
      000000B4H   SFRSYM    DATA     BYTE      P1M2
      00000090H   SFRSYM    DATA     BYTE      P1
      00000090H.6 SFRSYM    DATA     BIT       TXD_1
      000000C0H.2 SFRSYM    DATA     BIT       AA
      000000ACH   SFRSYM    DATA     BYTE      P3M1
      000000A0H   SFRSYM    DATA     BYTE      P2
      000000B0H   SFRSYM    DATA     BYTE      P3
      000000ADH   SFRSYM    DATA     BYTE      P3M2
      000000D0H.6 SFRSYM    DATA     BIT       AC
      0000008FH   SFRSYM    DATA     BYTE      WKCON
      00000084H   SFRSYM    DATA     BYTE      RCTRIM0
      0000009CH   SFRSYM    DATA     BYTE      EIE1
      00000085H   SFRSYM    DATA     BYTE      RCTRIM1
      000000A8H.7 SFRSYM    DATA     BIT       EA
      000000D8H   SFRSYM    DATA     BYTE      PWMCON0
      000000DFH   SFRSYM    DATA     BYTE      PWMCON1
      00000098H.7 SFRSYM    DATA     BIT       FE
      000000A8H.6 SFRSYM    DATA     BIT       EADC
      000000D1H   SFRSYM    DATA     BYTE      PWMPH
      000000A8H   SFRSYM    DATA     BYTE      IE
      00000096H   SFRSYM    DATA     BYTE      CKSWT
      000000E8H.7 SFRSYM    DATA     BIT       ADCF
      000000FEH   SFRSYM    DATA     BYTE      EIP1
      000000D9H   SFRSYM    DATA     BYTE      PWMPL
      000000E8H.0 SFRSYM    DATA     BIT       ADCHS0
      000000C7H   SFRSYM    DATA     BYTE      TA
      000000E8H.1 SFRSYM    DATA     BIT       ADCHS1
      000000E8H.2 SFRSYM    DATA     BIT       ADCHS2
      000000A8H.4 SFRSYM    DATA     BIT       ES
      000000E8H.3 SFRSYM    DATA     BIT       ADCHS3
LX51 LINKER/LOCATER V4.66.93.0                                                        01/30/2021  20:27:41  PAGE 20


      000000C1H   SFRSYM    DATA     BYTE      I2ADDR
      000000B8H.6 SFRSYM    DATA     BIT       PADC
      000000B8H   SFRSYM    DATA     BYTE      IP
      00000098H.0 SFRSYM    DATA     BIT       RI
      000000A8H.5 SFRSYM    DATA     BIT       EBOD
      000000C0H.3 SFRSYM    DATA     BIT       SI
      000000D0H.7 SFRSYM    DATA     BIT       CY
      000000E8H.6 SFRSYM    DATA     BIT       ADCS
      000000F8H.7 SFRSYM    DATA     BIT       FE_1
      00000098H.1 SFRSYM    DATA     BIT       TI
      000000D8H.6 SFRSYM    DATA     BIT       LOAD
      00000097H   SFRSYM    DATA     BYTE      CKEN
      000000B8H.4 SFRSYM    DATA     BIT       PS
      00000081H   SFRSYM    DATA     BYTE      SP
      000000D0H.2 SFRSYM    DATA     BIT       OV
      000000B7H   SFRSYM    DATA     BYTE      PWMINTC
      000000B8H.5 SFRSYM    DATA     BIT       PBOD
      000000B2H   SFRSYM    DATA     BYTE      P0SR
      000000F7H   SFRSYM    DATA     BYTE      EIPH
      000000B4H   SFRSYM    DATA     BYTE      P1SR
      000000ADH   SFRSYM    DATA     BYTE      P3SR
      000000F8H.0 SFRSYM    DATA     BIT       RI_1
      000000F8H.1 SFRSYM    DATA     BIT       TI_1
      000000CBH   SFRSYM    DATA     BYTE      RCMP2H
      000000CFH   SFRSYM    DATA     BYTE      ADCMPH
      00000080H.0 SFRSYM    DATA     BIT       P00
      00000080H.1 SFRSYM    DATA     BIT       P01
      00000090H.0 SFRSYM    DATA     BIT       P10
      000000FBH   SFRSYM    DATA     BYTE      PMEN
      00000099H   SFRSYM    DATA     BYTE      SBUF
      00000087H   SFRSYM    DATA     BYTE      PCON
      00000080H.2 SFRSYM    DATA     BIT       P02
      00000090H.1 SFRSYM    DATA     BIT       P11
      000000A0H.0 SFRSYM    DATA     BIT       P20
      000000CAH   SFRSYM    DATA     BYTE      RCMP2L
      00000080H.3 SFRSYM    DATA     BIT       P03
      00000090H.2 SFRSYM    DATA     BIT       P12
      000000B0H.0 SFRSYM    DATA     BIT       P30
      000000E3H   SFRSYM    DATA     BYTE      ADCDLY
      000000CEH   SFRSYM    DATA     BYTE      ADCMPL
      00000080H.4 SFRSYM    DATA     BIT       P04
      00000090H.3 SFRSYM    DATA     BIT       P13
      00000098H   SFRSYM    DATA     BYTE      SCON
      00000080H.5 SFRSYM    DATA     BIT       P05
      00000090H.4 SFRSYM    DATA     BIT       P14
      00000089H   SFRSYM    DATA     BYTE      TMOD
      00000088H   SFRSYM    DATA     BYTE      TCON
      00000080H.6 SFRSYM    DATA     BIT       P06
      00000090H.5 SFRSYM    DATA     BIT       P15
      00000080H.7 SFRSYM    DATA     BIT       P07
      00000090H.6 SFRSYM    DATA     BIT       P16
      00000090H.7 SFRSYM    DATA     BIT       P17
      00000080H.0 SFRSYM    DATA     BIT       MOSI
      00000080H.1 SFRSYM    DATA     BIT       MISO
      000000F3H   SFRSYM    DATA     BYTE      SPCR
      000000BDH   SFRSYM    DATA     BYTE      I2STAT
      000000F5H   SFRSYM    DATA     BYTE      SPDR
      000000D8H.5 SFRSYM    DATA     BIT       PWMF
      000000E5H   SFRSYM    DATA     BYTE      C0H
      000000E7H   SFRSYM    DATA     BYTE      C1H
      000000EEH   SFRSYM    DATA     BYTE      C2H
      0000009FH   SFRSYM    DATA     BYTE      CHPCON
      00000088H.1 SFRSYM    DATA     BIT       IE0
      00000088H.3 SFRSYM    DATA     BIT       IE1
      000000E4H   SFRSYM    DATA     BYTE      C0L
LX51 LINKER/LOCATER V4.66.93.0                                                        01/30/2021  20:27:41  PAGE 21


      00000091H   SFRSYM    DATA     BYTE      SFRS
      000000E6H   SFRSYM    DATA     BYTE      C1L
      000000C8H.0 SFRSYM    DATA     BIT       CM_RL2
      000000F0H   SFRSYM    DATA     BYTE      B
      000000EDH   SFRSYM    DATA     BYTE      C2L
      0000009AH   SFRSYM    DATA     BYTE      SBUF_1
      000000A5H   SFRSYM    DATA     BYTE      IAPUEN
      000000F8H   SFRSYM    DATA     BYTE      SCON_1
      000000E0H   SFRSYM    DATA     BYTE      ACC
      000000A8H.1 SFRSYM    DATA     BIT       ET0
      000000F4H   SFRSYM    DATA     BYTE      SPSR
      000000A4H   SFRSYM    DATA     BYTE      IAPTRG
      00000088H.5 SFRSYM    DATA     BIT       TF0
      000000A8H.3 SFRSYM    DATA     BIT       ET1
      00000088H.7 SFRSYM    DATA     BIT       TF1
      00000098H.2 SFRSYM    DATA     BIT       RB8
      000000C8H.7 SFRSYM    DATA     BIT       TF2
      000000D7H   SFRSYM    DATA     BYTE      FBD
      0000008CH   SFRSYM    DATA     BYTE      TH0
      00000088H.0 SFRSYM    DATA     BIT       IT0
      000000A8H.0 SFRSYM    DATA     BIT       EX0
      000000C6H   SFRSYM    DATA     BYTE      RH3
      0000008DH   SFRSYM    DATA     BYTE      TH1
      00000088H.2 SFRSYM    DATA     BIT       IT1
      00000098H.3 SFRSYM    DATA     BIT       TB8
      000000A8H.2 SFRSYM    DATA     BIT       EX1
      000000CDH   SFRSYM    DATA     BYTE      TH2
      000000D0H.0 SFRSYM    DATA     BIT       P
      000000FAH   SFRSYM    DATA     BYTE      PDTCNT
      00000098H.7 SFRSYM    DATA     BIT       SM0
      0000008AH   SFRSYM    DATA     BYTE      TL0
      00000098H.6 SFRSYM    DATA     BIT       SM1
      000000C5H   SFRSYM    DATA     BYTE      RL3
      0000008BH   SFRSYM    DATA     BYTE      TL1
      00000098H.5 SFRSYM    DATA     BIT       SM2
      000000C0H.6 SFRSYM    DATA     BIT       I2CEN
      000000CCH   SFRSYM    DATA     BYTE      TL2
      000000B1H   SFRSYM    DATA     BYTE      P0S
      0000009BH   SFRSYM    DATA     BYTE      EIE
      000000B8H.1 SFRSYM    DATA     BIT       PT0
      000000B3H   SFRSYM    DATA     BYTE      P1S
      000000B8H.3 SFRSYM    DATA     BIT       PT1
      000000D0H.3 SFRSYM    DATA     BIT       RS0
      000000BCH   SFRSYM    DATA     BYTE      I2DAT
      000000B5H   SFRSYM    DATA     BYTE      P2S
      00000088H.4 SFRSYM    DATA     BIT       TR0
      000000D0H.4 SFRSYM    DATA     BIT       RS1
      000000BEH   SFRSYM    DATA     BYTE      I2CLK
      000000ACH   SFRSYM    DATA     BYTE      P3S
      00000088H.6 SFRSYM    DATA     BIT       TR1
      000000D8H.4 SFRSYM    DATA     BIT       CLRPWM
      00000090H.4 SFRSYM    DATA     BIT       SDA
      000000B8H.0 SFRSYM    DATA     BIT       PX0
      000000C8H.2 SFRSYM    DATA     BIT       TR2
      000000FFH   SFRSYM    DATA     BYTE      EIPH1
      000000B8H.2 SFRSYM    DATA     BIT       PX1
      000000E8H   SFRSYM    DATA     BYTE      ADCCON0
      000000E1H   SFRSYM    DATA     BYTE      ADCCON1
      000000E2H   SFRSYM    DATA     BYTE      ADCCON2
      000000C0H   SFRSYM    DATA     BYTE      I2CON
      00000083H   SFRSYM    DATA     BYTE      DPH
      000000F8H.2 SFRSYM    DATA     BIT       RB8_1
      000000EFH   SFRSYM    DATA     BYTE      EIP
      000000F8H.3 SFRSYM    DATA     BIT       TB8_1
      000000ECH   SFRSYM    DATA     BYTE      PIF
LX51 LINKER/LOCATER V4.66.93.0                                                        01/30/2021  20:27:41  PAGE 22


      00000082H   SFRSYM    DATA     BYTE      DPL
      000000F8H.7 SFRSYM    DATA     BIT       SM0_1
      000000FCH   SFRSYM    DATA     BYTE      PMD
      000000B7H   SFRSYM    DATA     BYTE      IPH
      00000090H.3 SFRSYM    DATA     BIT       SCL
      000000F8H.6 SFRSYM    DATA     BIT       SM1_1
      000000BFH   SFRSYM    DATA     BYTE      I2TOC
      000000F8H.5 SFRSYM    DATA     BIT       SM2_1
      000000C3H   SFRSYM    DATA     BYTE      ADCRH
      000000A7H   SFRSYM    DATA     BYTE      IAPAH
      00000098H.4 SFRSYM    DATA     BIT       REN
      000000AEH   SFRSYM    DATA     BYTE      IAPFD
      00000092H   SFRSYM    DATA     BYTE      CAPCON0
      000000C0H.0 SFRSYM    DATA     BIT       I2CPX
      000000C9H   SFRSYM    DATA     BYTE      T2MOD
      000000C8H   SFRSYM    DATA     BYTE      T2CON
      000000C2H   SFRSYM    DATA     BYTE      ADCRL
      000000A3H   SFRSYM    DATA     BYTE      BODCON0
      00000093H   SFRSYM    DATA     BYTE      CAPCON1
      000000C0H.5 SFRSYM    DATA     BIT       STA
      000000C4H   SFRSYM    DATA     BYTE      T3CON
      000000ABH   SFRSYM    DATA     BYTE      BODCON1
      000000A6H   SFRSYM    DATA     BYTE      IAPAL
      00000094H   SFRSYM    DATA     BYTE      CAPCON2
      000000F1H   SFRSYM    DATA     BYTE      CAPCON3
      000000F2H   SFRSYM    DATA     BYTE      CAPCON4
      000000D8H.7 SFRSYM    DATA     BIT       PWMRUN
      000000F3H   SFRSYM    DATA     BYTE      SPCR2
      000000B9H   SFRSYM    DATA     BYTE      SADEN
      000000AFH   SFRSYM    DATA     BYTE      IAPCN
      000000D2H   SFRSYM    DATA     BYTE      PWM0H
      00000080H.7 SFRSYM    DATA     BIT       RXD
      000000D6H   SFRSYM    DATA     BYTE      PNP
      000000D3H   SFRSYM    DATA     BYTE      PWM1H
      000000D4H   SFRSYM    DATA     BYTE      PWM2H
      000000A9H   SFRSYM    DATA     BYTE      SADDR
      0000008EH   SFRSYM    DATA     BYTE      CKCON
      00000080H.4 SFRSYM    DATA     BIT       STADC
      00000080H.6 SFRSYM    DATA     BIT       TXD
      000000D5H   SFRSYM    DATA     BYTE      PWM3H
      000000DAH   SFRSYM    DATA     BYTE      PWM0L
      000000C4H   SFRSYM    DATA     BYTE      PWM4H
      000000DBH   SFRSYM    DATA     BYTE      PWM1L
      000000C5H   SFRSYM    DATA     BYTE      PWM5H
      000000A2H   SFRSYM    DATA     BYTE      AUXR1
      00000095H   SFRSYM    DATA     BYTE      CKDIV
      000000DCH   SFRSYM    DATA     BYTE      PWM2L
      000000DDH   SFRSYM    DATA     BYTE      PWM3L
      00000086H   SFRSYM    DATA     BYTE      RWK
      000000D0H.5 SFRSYM    DATA     BIT       F0
      000000CCH   SFRSYM    DATA     BYTE      PWM4L
      000000C0H.4 SFRSYM    DATA     BIT       STO
      000000E8H.4 SFRSYM    DATA     BIT       ETGSEL0
      000000F8H.4 SFRSYM    DATA     BIT       REN_1
      000000CDH   SFRSYM    DATA     BYTE      PWM5L
      000000E8H.5 SFRSYM    DATA     BIT       ETGSEL1
      000000E9H   SFRSYM    DATA     BYTE      PICON
      000000DEH   SFRSYM    DATA     BYTE      PIOCON0
      000000D0H   SFRSYM    DATA     BYTE      PSW
      000000EAH   SFRSYM    DATA     BYTE      PINEN
      000000C6H   SFRSYM    DATA     BYTE      PIOCON1
      000000F9H   SFRSYM    DATA     BYTE      PDTEN
      000000AAH   SFRSYM    DATA     BYTE      WDCON
      000000EBH   SFRSYM    DATA     BYTE      PIPEN
      000000BAH   SFRSYM    DATA     BYTE      SADEN_1
LX51 LINKER/LOCATER V4.66.93.0                                                        01/30/2021  20:27:41  PAGE 23



      01000BD0H   BLOCK     CODE     ---       LVL=0
      00000004H   SYMBOL    DATA     DWORD     u32Baudrate
      01000BD0H   LINE      CODE     ---       #23
      01000BD0H   LINE      CODE     ---       #24
      01000BD0H   LINE      CODE     ---       #25
      01000BD6H   LINE      CODE     ---       #26
      01000BDCH   LINE      CODE     ---       #28
      01000BDFH   LINE      CODE     ---       #29
      01000BE2H   LINE      CODE     ---       #31
      01000BE5H   LINE      CODE     ---       #32
      01000BE8H   LINE      CODE     ---       #33
      01000BEBH   LINE      CODE     ---       #36
      01000C04H   LINE      CODE     ---       #41
      01000C06H   LINE      CODE     ---       #42
      01000C08H   LINE      CODE     ---       #43
      ---         BLOCKEND  ---      ---       LVL=0

      01000697H   BLOCK     CODE     ---       LVL=0
      00000054H   SYMBOL    DATA     DWORD     u32Baudrate
      01000697H   LINE      CODE     ---       #45
      0100069FH   LINE      CODE     ---       #46
      0100069FH   LINE      CODE     ---       #47
      010006A5H   LINE      CODE     ---       #48
      010006ABH   LINE      CODE     ---       #50
      010006AEH   LINE      CODE     ---       #51
      010006B1H   LINE      CODE     ---       #52
      010006B4H   LINE      CODE     ---       #53
      010006B7H   LINE      CODE     ---       #56
      010006E0H   LINE      CODE     ---       #57
      010006FAH   LINE      CODE     ---       #63
      010006FDH   LINE      CODE     ---       #64
      010006FFH   LINE      CODE     ---       #65
      ---         BLOCKEND  ---      ---       LVL=0

      01000D70H   BLOCK     CODE     ---       LVL=0
      01000D70H   BLOCK     CODE     NEAR LAB  LVL=1
      00000007H   SYMBOL    DATA     BYTE      c
      ---         BLOCKEND  ---      ---       LVL=1
      01000D70H   LINE      CODE     ---       #67
      01000D70H   LINE      CODE     ---       #68
      01000D70H   LINE      CODE     ---       #70
      01000D73H   LINE      CODE     ---       #71
      01000D75H   LINE      CODE     ---       #72
      01000D77H   LINE      CODE     ---       #73
      01000D77H   LINE      CODE     ---       #74
      ---         BLOCKEND  ---      ---       LVL=0

      01000D78H   BLOCK     CODE     ---       LVL=0
      00000007H   SYMBOL    DATA     BYTE      c
      01000D78H   LINE      CODE     ---       #76
      01000D78H   LINE      CODE     ---       #77
      01000D78H   LINE      CODE     ---       #78
      01000D7AH   LINE      CODE     ---       #79
      01000D7CH   LINE      CODE     ---       #80
      01000D7FH   LINE      CODE     ---       #81
      ---         BLOCKEND  ---      ---       LVL=0

      01000832H   BLOCK     CODE     ---       LVL=0
      00000058H   SYMBOL    DATA     DWORD     u32Baudrate
      01000832H   LINE      CODE     ---       #87
      0100083AH   LINE      CODE     ---       #88
      0100083AH   LINE      CODE     ---       #89
      01000840H   LINE      CODE     ---       #90
      01000846H   LINE      CODE     ---       #92
LX51 LINKER/LOCATER V4.66.93.0                                                        01/30/2021  20:27:41  PAGE 24


      01000849H   LINE      CODE     ---       #93
      0100084CH   LINE      CODE     ---       #94
      0100084FH   LINE      CODE     ---       #97
      01000878H   LINE      CODE     ---       #98
      01000892H   LINE      CODE     ---       #104
      01000895H   LINE      CODE     ---       #105
      ---         BLOCKEND  ---      ---       LVL=0

      01000D80H   BLOCK     CODE     ---       LVL=0
      01000D80H   BLOCK     CODE     NEAR LAB  LVL=1
      00000007H   SYMBOL    DATA     BYTE      c
      ---         BLOCKEND  ---      ---       LVL=1
      01000D80H   LINE      CODE     ---       #107
      01000D80H   LINE      CODE     ---       #108
      01000D80H   LINE      CODE     ---       #111
      01000D83H   LINE      CODE     ---       #112
      01000D85H   LINE      CODE     ---       #113
      01000D87H   LINE      CODE     ---       #114
      01000D87H   LINE      CODE     ---       #115
      ---         BLOCKEND  ---      ---       LVL=0

      01000D88H   BLOCK     CODE     ---       LVL=0
      00000007H   SYMBOL    DATA     BYTE      c
      01000D88H   LINE      CODE     ---       #117
      01000D88H   LINE      CODE     ---       #118
      01000D88H   LINE      CODE     ---       #119
      01000D8AH   LINE      CODE     ---       #120
      01000D8CH   LINE      CODE     ---       #121
      01000D8FH   LINE      CODE     ---       #122
      ---         BLOCKEND  ---      ---       LVL=0

      ---         MODULE    ---      ---       IIC_OLED
      00000020H.1 PUBLIC    BIT      BIT       I2C_Reset_Flag
      010015E8H   PUBLIC    CONST    ---       Hzk
      01001168H   PUBLIC    CONST    ---       zifu48
      01000DA8H   PUBLIC    CONST    ---       hanzi48
      01000DA2H   PUBLIC    CONST    ---       F6x8
      01000C6EH   PUBLIC    CODE     ---       OLED_Scroll
      01000446H   PUBLIC    CODE     ---       OLED_Init
      0000003BH   PUBLIC    DATA     BYTE      ?_OLED_CleanBMPexp?BYTE
      0100095CH   PUBLIC    CODE     ---       _OLED_CleanBMPexp
      00000021H   PUBLIC    DATA     BYTE      ?_OLED_ShowBMPexp?BYTE
      010005ABH   PUBLIC    CODE     ---       _OLED_ShowBMPexp
      00000015H   PUBLIC    DATA     BYTE      ?_OLED_DrawBMP?BYTE
      01000768H   PUBLIC    CODE     ---       _OLED_DrawBMP
      010008F9H   PUBLIC    CODE     ---       _OLED_ShowChar48
      01000896H   PUBLIC    CODE     ---       _OLED_ShowCHinese48
      01000627H   PUBLIC    CODE     ---       _OLED_ShowCHinese
      01000CB9H   PUBLIC    CODE     ---       _oled_pow
      01000C09H   PUBLIC    CODE     ---       OLED_Clear
      01000CE6H   PUBLIC    CODE     ---       OLED_Display_Off
      01000CD1H   PUBLIC    CODE     ---       OLED_Display_On
      01000C97H   PUBLIC    CODE     ---       _OLED_Set_Pos
      01000D28H   PUBLIC    CODE     ---       _OLED_WR_Byte
      01000D40H   PUBLIC    CODE     ---       _Write_IIC_Data
      01000D32H   PUBLIC    CODE     ---       _Write_IIC_Command
      01000C44H   PUBLIC    CODE     ---       _Write_IIC_Byte
      01000D06H   PUBLIC    CODE     ---       IIC_Wait_Ack
      01000D90H   PUBLIC    CODE     ---       IIC_Stop
      01000D67H   PUBLIC    CODE     ---       IIC_Start
      01000D0EH   PUBLIC    CODE     ---       Init_I2C
      000000F6H   SFRSYM    DATA     BYTE      AINDIDS
      000000B1H   SFRSYM    DATA     BYTE      P0M1
      00000080H.2 SFRSYM    DATA     BIT       RXD_1
      000000B3H   SFRSYM    DATA     BYTE      P1M1
LX51 LINKER/LOCATER V4.66.93.0                                                        01/30/2021  20:27:41  PAGE 25


      000000B2H   SFRSYM    DATA     BYTE      P0M2
      00000080H   SFRSYM    DATA     BYTE      P0
      000000BBH   SFRSYM    DATA     BYTE      SADDR_1
      000000B4H   SFRSYM    DATA     BYTE      P1M2
      00000090H   SFRSYM    DATA     BYTE      P1
      00000090H.6 SFRSYM    DATA     BIT       TXD_1
      000000C0H.2 SFRSYM    DATA     BIT       AA
      000000ACH   SFRSYM    DATA     BYTE      P3M1
      000000A0H   SFRSYM    DATA     BYTE      P2
      000000B0H   SFRSYM    DATA     BYTE      P3
      000000ADH   SFRSYM    DATA     BYTE      P3M2
      000000D0H.6 SFRSYM    DATA     BIT       AC
      0000008FH   SFRSYM    DATA     BYTE      WKCON
      00000084H   SFRSYM    DATA     BYTE      RCTRIM0
      0000009CH   SFRSYM    DATA     BYTE      EIE1
      00000085H   SFRSYM    DATA     BYTE      RCTRIM1
      000000A8H.7 SFRSYM    DATA     BIT       EA
      000000D8H   SFRSYM    DATA     BYTE      PWMCON0
      000000DFH   SFRSYM    DATA     BYTE      PWMCON1
      00000098H.7 SFRSYM    DATA     BIT       FE
      000000A8H.6 SFRSYM    DATA     BIT       EADC
      000000D1H   SFRSYM    DATA     BYTE      PWMPH
      000000A8H   SFRSYM    DATA     BYTE      IE
      00000096H   SFRSYM    DATA     BYTE      CKSWT
      000000E8H.7 SFRSYM    DATA     BIT       ADCF
      000000FEH   SFRSYM    DATA     BYTE      EIP1
      000000D9H   SFRSYM    DATA     BYTE      PWMPL
      000000E8H.0 SFRSYM    DATA     BIT       ADCHS0
      000000C7H   SFRSYM    DATA     BYTE      TA
      000000E8H.1 SFRSYM    DATA     BIT       ADCHS1
      000000E8H.2 SFRSYM    DATA     BIT       ADCHS2
      000000A8H.4 SFRSYM    DATA     BIT       ES
      000000E8H.3 SFRSYM    DATA     BIT       ADCHS3
      000000C1H   SFRSYM    DATA     BYTE      I2ADDR
      000000B8H.6 SFRSYM    DATA     BIT       PADC
      000000B8H   SFRSYM    DATA     BYTE      IP
      00000098H.0 SFRSYM    DATA     BIT       RI
      000000A8H.5 SFRSYM    DATA     BIT       EBOD
      000000C0H.3 SFRSYM    DATA     BIT       SI
      000000D0H.7 SFRSYM    DATA     BIT       CY
      000000E8H.6 SFRSYM    DATA     BIT       ADCS
      000000F8H.7 SFRSYM    DATA     BIT       FE_1
      00000098H.1 SFRSYM    DATA     BIT       TI
      000000D8H.6 SFRSYM    DATA     BIT       LOAD
      00000097H   SFRSYM    DATA     BYTE      CKEN
      000000B8H.4 SFRSYM    DATA     BIT       PS
      00000081H   SFRSYM    DATA     BYTE      SP
      000000D0H.2 SFRSYM    DATA     BIT       OV
      000000B7H   SFRSYM    DATA     BYTE      PWMINTC
      000000B8H.5 SFRSYM    DATA     BIT       PBOD
      000000B2H   SFRSYM    DATA     BYTE      P0SR
      000000F7H   SFRSYM    DATA     BYTE      EIPH
      000000B4H   SFRSYM    DATA     BYTE      P1SR
      000000ADH   SFRSYM    DATA     BYTE      P3SR
      000000F8H.0 SFRSYM    DATA     BIT       RI_1
      000000F8H.1 SFRSYM    DATA     BIT       TI_1
      000000CBH   SFRSYM    DATA     BYTE      RCMP2H
      000000CFH   SFRSYM    DATA     BYTE      ADCMPH
      00000080H.0 SFRSYM    DATA     BIT       P00
      00000080H.1 SFRSYM    DATA     BIT       P01
      00000090H.0 SFRSYM    DATA     BIT       P10
      000000FBH   SFRSYM    DATA     BYTE      PMEN
      00000099H   SFRSYM    DATA     BYTE      SBUF
      00000087H   SFRSYM    DATA     BYTE      PCON
      00000080H.2 SFRSYM    DATA     BIT       P02
LX51 LINKER/LOCATER V4.66.93.0                                                        01/30/2021  20:27:41  PAGE 26


      00000090H.1 SFRSYM    DATA     BIT       P11
      000000A0H.0 SFRSYM    DATA     BIT       P20
      000000CAH   SFRSYM    DATA     BYTE      RCMP2L
      00000080H.3 SFRSYM    DATA     BIT       P03
      00000090H.2 SFRSYM    DATA     BIT       P12
      000000B0H.0 SFRSYM    DATA     BIT       P30
      000000E3H   SFRSYM    DATA     BYTE      ADCDLY
      000000CEH   SFRSYM    DATA     BYTE      ADCMPL
      00000080H.4 SFRSYM    DATA     BIT       P04
      00000090H.3 SFRSYM    DATA     BIT       P13
      00000098H   SFRSYM    DATA     BYTE      SCON
      00000080H.5 SFRSYM    DATA     BIT       P05
      00000090H.4 SFRSYM    DATA     BIT       P14
      00000089H   SFRSYM    DATA     BYTE      TMOD
      00000088H   SFRSYM    DATA     BYTE      TCON
      00000080H.6 SFRSYM    DATA     BIT       P06
      00000090H.5 SFRSYM    DATA     BIT       P15
      00000080H.7 SFRSYM    DATA     BIT       P07
      00000090H.6 SFRSYM    DATA     BIT       P16
      00000090H.7 SFRSYM    DATA     BIT       P17
      00000080H.0 SFRSYM    DATA     BIT       MOSI
      00000080H.1 SFRSYM    DATA     BIT       MISO
      000000F3H   SFRSYM    DATA     BYTE      SPCR
      000000BDH   SFRSYM    DATA     BYTE      I2STAT
      000000F5H   SFRSYM    DATA     BYTE      SPDR
      000000D8H.5 SFRSYM    DATA     BIT       PWMF
      000000E5H   SFRSYM    DATA     BYTE      C0H
      000000E7H   SFRSYM    DATA     BYTE      C1H
      000000EEH   SFRSYM    DATA     BYTE      C2H
      0000009FH   SFRSYM    DATA     BYTE      CHPCON
      00000088H.1 SFRSYM    DATA     BIT       IE0
      00000088H.3 SFRSYM    DATA     BIT       IE1
      000000E4H   SFRSYM    DATA     BYTE      C0L
      00000091H   SFRSYM    DATA     BYTE      SFRS
      000000E6H   SFRSYM    DATA     BYTE      C1L
      000000C8H.0 SFRSYM    DATA     BIT       CM_RL2
      000000F0H   SFRSYM    DATA     BYTE      B
      000000EDH   SFRSYM    DATA     BYTE      C2L
      0000009AH   SFRSYM    DATA     BYTE      SBUF_1
      000000A5H   SFRSYM    DATA     BYTE      IAPUEN
      000000F8H   SFRSYM    DATA     BYTE      SCON_1
      000000E0H   SFRSYM    DATA     BYTE      ACC
      000000A8H.1 SFRSYM    DATA     BIT       ET0
      000000F4H   SFRSYM    DATA     BYTE      SPSR
      000000A4H   SFRSYM    DATA     BYTE      IAPTRG
      00000088H.5 SFRSYM    DATA     BIT       TF0
      000000A8H.3 SFRSYM    DATA     BIT       ET1
      00000088H.7 SFRSYM    DATA     BIT       TF1
      00000098H.2 SFRSYM    DATA     BIT       RB8
      000000C8H.7 SFRSYM    DATA     BIT       TF2
      000000D7H   SFRSYM    DATA     BYTE      FBD
      0000008CH   SFRSYM    DATA     BYTE      TH0
      00000088H.0 SFRSYM    DATA     BIT       IT0
      000000A8H.0 SFRSYM    DATA     BIT       EX0
      000000C6H   SFRSYM    DATA     BYTE      RH3
      0000008DH   SFRSYM    DATA     BYTE      TH1
      00000088H.2 SFRSYM    DATA     BIT       IT1
      00000098H.3 SFRSYM    DATA     BIT       TB8
      000000A8H.2 SFRSYM    DATA     BIT       EX1
      000000CDH   SFRSYM    DATA     BYTE      TH2
      000000D0H.0 SFRSYM    DATA     BIT       P
      000000FAH   SFRSYM    DATA     BYTE      PDTCNT
      00000098H.7 SFRSYM    DATA     BIT       SM0
      0000008AH   SFRSYM    DATA     BYTE      TL0
      00000098H.6 SFRSYM    DATA     BIT       SM1
LX51 LINKER/LOCATER V4.66.93.0                                                        01/30/2021  20:27:41  PAGE 27


      000000C5H   SFRSYM    DATA     BYTE      RL3
      0000008BH   SFRSYM    DATA     BYTE      TL1
      00000098H.5 SFRSYM    DATA     BIT       SM2
      000000C0H.6 SFRSYM    DATA     BIT       I2CEN
      000000CCH   SFRSYM    DATA     BYTE      TL2
      000000B1H   SFRSYM    DATA     BYTE      P0S
      0000009BH   SFRSYM    DATA     BYTE      EIE
      000000B8H.1 SFRSYM    DATA     BIT       PT0
      000000B3H   SFRSYM    DATA     BYTE      P1S
      000000B8H.3 SFRSYM    DATA     BIT       PT1
      000000D0H.3 SFRSYM    DATA     BIT       RS0
      000000BCH   SFRSYM    DATA     BYTE      I2DAT
      000000B5H   SFRSYM    DATA     BYTE      P2S
      00000088H.4 SFRSYM    DATA     BIT       TR0
      000000D0H.4 SFRSYM    DATA     BIT       RS1
      000000BEH   SFRSYM    DATA     BYTE      I2CLK
      000000ACH   SFRSYM    DATA     BYTE      P3S
      00000088H.6 SFRSYM    DATA     BIT       TR1
      000000D8H.4 SFRSYM    DATA     BIT       CLRPWM
      00000090H.4 SFRSYM    DATA     BIT       SDA
      000000B8H.0 SFRSYM    DATA     BIT       PX0
      000000C8H.2 SFRSYM    DATA     BIT       TR2
      000000FFH   SFRSYM    DATA     BYTE      EIPH1
      000000B8H.2 SFRSYM    DATA     BIT       PX1
      000000E8H   SFRSYM    DATA     BYTE      ADCCON0
      000000E1H   SFRSYM    DATA     BYTE      ADCCON1
      000000E2H   SFRSYM    DATA     BYTE      ADCCON2
      000000C0H   SFRSYM    DATA     BYTE      I2CON
      00000083H   SFRSYM    DATA     BYTE      DPH
      000000F8H.2 SFRSYM    DATA     BIT       RB8_1
      000000EFH   SFRSYM    DATA     BYTE      EIP
      000000F8H.3 SFRSYM    DATA     BIT       TB8_1
      000000ECH   SFRSYM    DATA     BYTE      PIF
      00000082H   SFRSYM    DATA     BYTE      DPL
      000000F8H.7 SFRSYM    DATA     BIT       SM0_1
      000000FCH   SFRSYM    DATA     BYTE      PMD
      000000B7H   SFRSYM    DATA     BYTE      IPH
      00000090H.3 SFRSYM    DATA     BIT       SCL
      000000F8H.6 SFRSYM    DATA     BIT       SM1_1
      000000BFH   SFRSYM    DATA     BYTE      I2TOC
      000000F8H.5 SFRSYM    DATA     BIT       SM2_1
      000000C3H   SFRSYM    DATA     BYTE      ADCRH
      000000A7H   SFRSYM    DATA     BYTE      IAPAH
      00000098H.4 SFRSYM    DATA     BIT       REN
      000000AEH   SFRSYM    DATA     BYTE      IAPFD
      00000092H   SFRSYM    DATA     BYTE      CAPCON0
      000000C0H.0 SFRSYM    DATA     BIT       I2CPX
      000000C9H   SFRSYM    DATA     BYTE      T2MOD
      000000C8H   SFRSYM    DATA     BYTE      T2CON
      000000C2H   SFRSYM    DATA     BYTE      ADCRL
      000000A3H   SFRSYM    DATA     BYTE      BODCON0
      00000093H   SFRSYM    DATA     BYTE      CAPCON1
      000000C0H.5 SFRSYM    DATA     BIT       STA
      000000C4H   SFRSYM    DATA     BYTE      T3CON
      000000ABH   SFRSYM    DATA     BYTE      BODCON1
      000000A6H   SFRSYM    DATA     BYTE      IAPAL
      00000094H   SFRSYM    DATA     BYTE      CAPCON2
      000000F1H   SFRSYM    DATA     BYTE      CAPCON3
      000000F2H   SFRSYM    DATA     BYTE      CAPCON4
      000000D8H.7 SFRSYM    DATA     BIT       PWMRUN
      000000F3H   SFRSYM    DATA     BYTE      SPCR2
      000000B9H   SFRSYM    DATA     BYTE      SADEN
      000000AFH   SFRSYM    DATA     BYTE      IAPCN
      000000D2H   SFRSYM    DATA     BYTE      PWM0H
      00000080H.7 SFRSYM    DATA     BIT       RXD
LX51 LINKER/LOCATER V4.66.93.0                                                        01/30/2021  20:27:41  PAGE 28


      000000D6H   SFRSYM    DATA     BYTE      PNP
      000000D3H   SFRSYM    DATA     BYTE      PWM1H
      000000D4H   SFRSYM    DATA     BYTE      PWM2H
      000000A9H   SFRSYM    DATA     BYTE      SADDR
      0000008EH   SFRSYM    DATA     BYTE      CKCON
      00000080H.4 SFRSYM    DATA     BIT       STADC
      00000080H.6 SFRSYM    DATA     BIT       TXD
      000000D5H   SFRSYM    DATA     BYTE      PWM3H
      000000DAH   SFRSYM    DATA     BYTE      PWM0L
      000000C4H   SFRSYM    DATA     BYTE      PWM4H
      000000DBH   SFRSYM    DATA     BYTE      PWM1L
      000000C5H   SFRSYM    DATA     BYTE      PWM5H
      000000A2H   SFRSYM    DATA     BYTE      AUXR1
      00000095H   SFRSYM    DATA     BYTE      CKDIV
      000000DCH   SFRSYM    DATA     BYTE      PWM2L
      000000DDH   SFRSYM    DATA     BYTE      PWM3L
      00000086H   SFRSYM    DATA     BYTE      RWK
      000000D0H.5 SFRSYM    DATA     BIT       F0
      000000CCH   SFRSYM    DATA     BYTE      PWM4L
      000000C0H.4 SFRSYM    DATA     BIT       STO
      000000E8H.4 SFRSYM    DATA     BIT       ETGSEL0
      000000F8H.4 SFRSYM    DATA     BIT       REN_1
      000000CDH   SFRSYM    DATA     BYTE      PWM5L
      000000E8H.5 SFRSYM    DATA     BIT       ETGSEL1
      000000E9H   SFRSYM    DATA     BYTE      PICON
      000000DEH   SFRSYM    DATA     BYTE      PIOCON0
      000000D0H   SFRSYM    DATA     BYTE      PSW
      000000EAH   SFRSYM    DATA     BYTE      PINEN
      000000C6H   SFRSYM    DATA     BYTE      PIOCON1
      000000F9H   SFRSYM    DATA     BYTE      PDTEN
      000000AAH   SFRSYM    DATA     BYTE      WDCON
      000000EBH   SFRSYM    DATA     BYTE      PIPEN
      000000BAH   SFRSYM    DATA     BYTE      SADEN_1

      01000D0EH   BLOCK     CODE     ---       LVL=0
      01000D0EH   LINE      CODE     ---       #52
      01000D0EH   LINE      CODE     ---       #53
      01000D0EH   LINE      CODE     ---       #54
      01000D14H   LINE      CODE     ---       #55
      01000D1AH   LINE      CODE     ---       #58
      01000D1DH   LINE      CODE     ---       #61
      01000D1FH   LINE      CODE     ---       #62
      ---         BLOCKEND  ---      ---       LVL=0

      01000D67H   BLOCK     CODE     ---       LVL=0
      01000D67H   LINE      CODE     ---       #68
      01000D67H   LINE      CODE     ---       #69
      01000D67H   LINE      CODE     ---       #71
      01000D69H   LINE      CODE     ---       #72
      01000D6BH   LINE      CODE     ---       #73
      01000D6DH   LINE      CODE     ---       #74
      01000D6FH   LINE      CODE     ---       #75
      ---         BLOCKEND  ---      ---       LVL=0

      01000D90H   BLOCK     CODE     ---       LVL=0
      01000D90H   LINE      CODE     ---       #80
      01000D90H   LINE      CODE     ---       #81
      01000D90H   LINE      CODE     ---       #82
      01000D92H   LINE      CODE     ---       #83
      01000D94H   LINE      CODE     ---       #84
      01000D96H   LINE      CODE     ---       #85
      ---         BLOCKEND  ---      ---       LVL=0

      01000CFBH   BLOCK     CODE     ---       LVL=0
      ---         BLOCKEND  ---      ---       LVL=0
LX51 LINKER/LOCATER V4.66.93.0                                                        01/30/2021  20:27:41  PAGE 29



      01000D06H   BLOCK     CODE     ---       LVL=0
      01000D06H   LINE      CODE     ---       #90
      01000D06H   LINE      CODE     ---       #91
      01000D06H   LINE      CODE     ---       #92
      01000D06H   LINE      CODE     ---       #93
      01000D06H   LINE      CODE     ---       #94
      01000D09H   LINE      CODE     ---       #95
      01000D09H   LINE      CODE     ---       #96
      01000D09H   LINE      CODE     ---       #97
      01000D09H   LINE      CODE     ---       #98
      01000D09H   LINE      CODE     ---       #99
      01000D0BH   LINE      CODE     ---       #100
      01000D0DH   LINE      CODE     ---       #101
      ---         BLOCKEND  ---      ---       LVL=0

      01000C3DH   BLOCK     CODE     ---       LVL=0
      ---         BLOCKEND  ---      ---       LVL=0

      01000C44H   BLOCK     CODE     ---       LVL=0
      00000007H   SYMBOL    DATA     BYTE      IIC_Byte
      00000006H   SYMBOL    DATA     BYTE      i
      00000005H   SYMBOL    DATA     BYTE      m
      00000007H   SYMBOL    DATA     BYTE      da
      01000C44H   BLOCK     CODE     NEAR LAB  LVL=1
      00000006H   SYMBOL    DATA     BYTE      i
      00000005H   SYMBOL    DATA     BYTE      m
      00000007H   SYMBOL    DATA     BYTE      da
      ---         BLOCKEND  ---      ---       LVL=1
      01000C44H   LINE      CODE     ---       #106
      01000C44H   LINE      CODE     ---       #107
      01000C44H   LINE      CODE     ---       #110
      01000C44H   LINE      CODE     ---       #111
      01000C46H   LINE      CODE     ---       #112
      01000C52H   LINE      CODE     ---       #113
      01000C52H   LINE      CODE     ---       #114
      01000C54H   LINE      CODE     ---       #115
      01000C57H   LINE      CODE     ---       #116
      01000C5CH   LINE      CODE     ---       #117
      01000C60H   LINE      CODE     ---       #118
      01000C62H   LINE      CODE     ---       #119
      01000C66H   LINE      CODE     ---       #120
      01000C68H   LINE      CODE     ---       #121
      01000C6AH   LINE      CODE     ---       #122
      01000C6DH   LINE      CODE     ---       #123
      ---         BLOCKEND  ---      ---       LVL=0

      01000D32H   BLOCK     CODE     ---       LVL=0
      00000004H   SYMBOL    DATA     BYTE      IIC_Command
      01000D32H   LINE      CODE     ---       #127
      01000D32H   LINE      CODE     ---       #128
      01000D32H   LINE      CODE     ---       #129
      01000D32H   LINE      CODE     ---       #130
      01000D35H   LINE      CODE     ---       #131
      01000D38H   LINE      CODE     ---       #132
      01000D3AH   LINE      CODE     ---       #133
      01000D3AH   LINE      CODE     ---       #134
      01000D3AH   LINE      CODE     ---       #135
      01000D3DH   LINE      CODE     ---       #136
      ---         BLOCKEND  ---      ---       LVL=0

      01000D40H   BLOCK     CODE     ---       LVL=0
      00000004H   SYMBOL    DATA     BYTE      IIC_Data
      01000D40H   LINE      CODE     ---       #141
      01000D40H   LINE      CODE     ---       #142
LX51 LINKER/LOCATER V4.66.93.0                                                        01/30/2021  20:27:41  PAGE 30


      01000D40H   LINE      CODE     ---       #143
      01000D40H   LINE      CODE     ---       #144
      01000D43H   LINE      CODE     ---       #145
      01000D46H   LINE      CODE     ---       #146
      01000D48H   LINE      CODE     ---       #147
      01000D48H   LINE      CODE     ---       #148
      01000D48H   LINE      CODE     ---       #149
      01000D4BH   LINE      CODE     ---       #150
      ---         BLOCKEND  ---      ---       LVL=0

      01000D20H   BLOCK     CODE     ---       LVL=0
      ---         BLOCKEND  ---      ---       LVL=0

      01000D28H   BLOCK     CODE     ---       LVL=0
      00000007H   SYMBOL    DATA     BYTE      dat
      00000005H   SYMBOL    DATA     BYTE      cmd
      01000D28H   LINE      CODE     ---       #176
      01000D28H   LINE      CODE     ---       #177
      01000D28H   LINE      CODE     ---       #178
      01000D2BH   LINE      CODE     ---       #179
      01000D2BH   LINE      CODE     ---       #180
      01000D2EH   LINE      CODE     ---       #181
      01000D2EH   LINE      CODE     ---       #182
      01000D2EH   LINE      CODE     ---       #183
      01000D31H   LINE      CODE     ---       #184
      01000D31H   LINE      CODE     ---       #185
      ---         BLOCKEND  ---      ---       LVL=0

      01000C97H   BLOCK     CODE     ---       LVL=0
      00000003H   SYMBOL    DATA     BYTE      x
      00000005H   SYMBOL    DATA     BYTE      y
      01000C97H   LINE      CODE     ---       #194
      01000C99H   LINE      CODE     ---       #195
      01000C99H   LINE      CODE     ---       #196
      01000CA2H   LINE      CODE     ---       #197
      01000CABH   LINE      CODE     ---       #198
      ---         BLOCKEND  ---      ---       LVL=0

      01000CD1H   BLOCK     CODE     ---       LVL=0
      01000CD1H   LINE      CODE     ---       #208
      01000CD1H   LINE      CODE     ---       #209
      01000CD1H   LINE      CODE     ---       #210
      01000CD8H   LINE      CODE     ---       #211
      01000CDFH   LINE      CODE     ---       #212
      ---         BLOCKEND  ---      ---       LVL=0

      01000CE6H   BLOCK     CODE     ---       LVL=0
      01000CE6H   LINE      CODE     ---       #221
      01000CE6H   LINE      CODE     ---       #222
      01000CE6H   LINE      CODE     ---       #223
      01000CEDH   LINE      CODE     ---       #224
      01000CF4H   LINE      CODE     ---       #225
      ---         BLOCKEND  ---      ---       LVL=0

      01000C09H   BLOCK     CODE     ---       LVL=0
      01000C09H   BLOCK     CODE     NEAR LAB  LVL=1
      00000003H   SYMBOL    DATA     BYTE      i
      00000002H   SYMBOL    DATA     BYTE      n
      ---         BLOCKEND  ---      ---       LVL=1
      01000C09H   LINE      CODE     ---       #235
      01000C09H   LINE      CODE     ---       #236
      01000C09H   LINE      CODE     ---       #238
      01000C15H   LINE      CODE     ---       #239
      01000C15H   LINE      CODE     ---       #240
      01000C19H   LINE      CODE     ---       #241
LX51 LINKER/LOCATER V4.66.93.0                                                        01/30/2021  20:27:41  PAGE 31


      01000C1CH   LINE      CODE     ---       #242
      01000C23H   LINE      CODE     ---       #243
      01000C39H   LINE      CODE     ---       #244
      01000C3CH   LINE      CODE     ---       #245
      ---         BLOCKEND  ---      ---       LVL=0

      01000CB9H   BLOCK     CODE     ---       LVL=0
      00000060H   SYMBOL    DATA     BYTE      m
      00000001H   SYMBOL    DATA     BYTE      n
      01000CBDH   BLOCK     CODE     NEAR LAB  LVL=1
      00000006H   SYMBOL    DATA     WORD      result
      ---         BLOCKEND  ---      ---       LVL=1
      01000CB9H   LINE      CODE     ---       #282
      01000CBDH   LINE      CODE     ---       #283
      01000CBDH   LINE      CODE     ---       #284
      01000CC1H   LINE      CODE     ---       #285
      01000CD0H   LINE      CODE     ---       #286
      01000CD0H   LINE      CODE     ---       #287
      ---         BLOCKEND  ---      ---       LVL=0

      01000627H   BLOCK     CODE     ---       LVL=0
      00000061H   SYMBOL    DATA     BYTE      x
      00000001H   SYMBOL    DATA     BYTE      y
      00000002H   SYMBOL    DATA     BYTE      no
      0100062DH   BLOCK     CODE     NEAR LAB  LVL=1
      00000003H   SYMBOL    DATA     BYTE      t
      ---         BLOCKEND  ---      ---       LVL=1
      01000627H   LINE      CODE     ---       #340
      0100062DH   LINE      CODE     ---       #341
      0100062DH   LINE      CODE     ---       #343
      01000630H   LINE      CODE     ---       #344
      0100063CH   LINE      CODE     ---       #345
      0100063CH   LINE      CODE     ---       #346
      0100065CH   LINE      CODE     ---       #347
      0100065FH   LINE      CODE     ---       #348
      01000667H   LINE      CODE     ---       #349
      01000673H   LINE      CODE     ---       #350
      01000673H   LINE      CODE     ---       #351
      01000693H   LINE      CODE     ---       #352
      01000696H   LINE      CODE     ---       #353
      ---         BLOCKEND  ---      ---       LVL=0

      01000896H   BLOCK     CODE     ---       LVL=0
      00000031H   SYMBOL    DATA     BYTE      x
      00000032H   SYMBOL    DATA     BYTE      y
      00000033H   SYMBOL    DATA     BYTE      no
      0100089CH   BLOCK     CODE     NEAR LAB  LVL=1
      00000001H   SYMBOL    DATA     BYTE      t
      00000002H   SYMBOL    DATA     BYTE      i
      ---         BLOCKEND  ---      ---       LVL=1
      01000896H   LINE      CODE     ---       #355
      0100089CH   LINE      CODE     ---       #356
      0100089CH   LINE      CODE     ---       #357
      0100089FH   LINE      CODE     ---       #358
      010008A2H   LINE      CODE     ---       #359
      010008ACH   LINE      CODE     ---       #360
      010008ACH   LINE      CODE     ---       #361
      010008B5H   LINE      CODE     ---       #362
      010008C1H   LINE      CODE     ---       #363
      010008C1H   LINE      CODE     ---       #364
      010008F2H   LINE      CODE     ---       #365
      010008F5H   LINE      CODE     ---       #366
      010008F8H   LINE      CODE     ---       #367
      ---         BLOCKEND  ---      ---       LVL=0

LX51 LINKER/LOCATER V4.66.93.0                                                        01/30/2021  20:27:41  PAGE 32


      010008F9H   BLOCK     CODE     ---       LVL=0
      00000031H   SYMBOL    DATA     BYTE      x
      00000032H   SYMBOL    DATA     BYTE      y
      00000033H   SYMBOL    DATA     BYTE      no
      010008FFH   BLOCK     CODE     NEAR LAB  LVL=1
      00000001H   SYMBOL    DATA     BYTE      t
      00000002H   SYMBOL    DATA     BYTE      i
      ---         BLOCKEND  ---      ---       LVL=1
      010008F9H   LINE      CODE     ---       #372
      010008FFH   LINE      CODE     ---       #373
      010008FFH   LINE      CODE     ---       #374
      01000902H   LINE      CODE     ---       #375
      01000905H   LINE      CODE     ---       #376
      0100090FH   LINE      CODE     ---       #377
      0100090FH   LINE      CODE     ---       #378
      01000918H   LINE      CODE     ---       #379
      01000924H   LINE      CODE     ---       #380
      01000924H   LINE      CODE     ---       #381
      01000955H   LINE      CODE     ---       #382
      01000958H   LINE      CODE     ---       #383
      0100095BH   LINE      CODE     ---       #384
      ---         BLOCKEND  ---      ---       LVL=0

      01000768H   BLOCK     CODE     ---       LVL=0
      00000015H   SYMBOL    DATA     BYTE      x0
      00000005H   SYMBOL    DATA     BYTE      y0
      00000017H   SYMBOL    DATA     BYTE      x1
      00000018H   SYMBOL    DATA     BYTE      y1
      00000019H   SYMBOL    DATA     ---       BMP
      0100076CH   BLOCK     CODE     NEAR LAB  LVL=1
      0000001CH   SYMBOL    DATA     WORD      j
      0000001EH   SYMBOL    DATA     BYTE      x
      0000001FH   SYMBOL    DATA     BYTE      y
      ---         BLOCKEND  ---      ---       LVL=1
      01000768H   LINE      CODE     ---       #402
      0100076CH   LINE      CODE     ---       #403
      0100076CH   LINE      CODE     ---       #404
      01000771H   LINE      CODE     ---       #407
      01000782H   LINE      CODE     ---       #408
      0100078CH   LINE      CODE     ---       #410
      01000795H   LINE      CODE     ---       #411
      01000795H   LINE      CODE     ---       #412
      0100079CH   LINE      CODE     ---       #413
      010007A6H   LINE      CODE     ---       #414
      010007A6H   LINE      CODE     ---       #415
      010007C4H   LINE      CODE     ---       #416
      010007C8H   LINE      CODE     ---       #417
      010007CCH   LINE      CODE     ---       #418
      ---         BLOCKEND  ---      ---       LVL=0

      010005ABH   BLOCK     CODE     ---       LVL=0
      00000021H   SYMBOL    DATA     BYTE      xstart
      00000022H   SYMBOL    DATA     BYTE      page
      00000023H   SYMBOL    DATA     ---       data1
      00000026H   SYMBOL    DATA     BYTE      imgwide
      00000027H   SYMBOL    DATA     BYTE      imgheight
      010005B5H   BLOCK     CODE     NEAR LAB  LVL=1
      00000028H   SYMBOL    DATA     BYTE      i
      00000029H   SYMBOL    DATA     BYTE      j
      0000002AH   SYMBOL    DATA     BYTE      y
      ---         BLOCKEND  ---      ---       LVL=1
      010005ABH   LINE      CODE     ---       #420
      010005B5H   LINE      CODE     ---       #421
      010005B5H   LINE      CODE     ---       #424
      010005C9H   LINE      CODE     ---       #425
LX51 LINKER/LOCATER V4.66.93.0                                                        01/30/2021  20:27:41  PAGE 33


      010005CFH   LINE      CODE     ---       #426
      010005CFH   LINE      CODE     ---       #427
      010005D8H   LINE      CODE     ---       #428
      010005DAH   LINE      CODE     ---       #430
      010005DAH   LINE      CODE     ---       #431
      010005E4H   LINE      CODE     ---       #432
      010005E4H   LINE      CODE     ---       #433
      010005EEH   LINE      CODE     ---       #434
      010005EEH   LINE      CODE     ---       #435
      010005F8H   LINE      CODE     ---       #436
      01000602H   LINE      CODE     ---       #437
      01000602H   LINE      CODE     ---       #438
      0100061EH   LINE      CODE     ---       #439
      01000622H   LINE      CODE     ---       #440
      01000626H   LINE      CODE     ---       #441
      ---         BLOCKEND  ---      ---       LVL=0

      0100095CH   BLOCK     CODE     ---       LVL=0
      0000003BH   SYMBOL    DATA     BYTE      xstart
      00000001H   SYMBOL    DATA     BYTE      page
      0000003DH   SYMBOL    DATA     BYTE      imgwide
      0000003EH   SYMBOL    DATA     BYTE      imgheight
      01000962H   BLOCK     CODE     NEAR LAB  LVL=1
      00000004H   SYMBOL    DATA     BYTE      i
      00000002H   SYMBOL    DATA     BYTE      j
      0000003FH   SYMBOL    DATA     BYTE      y
      ---         BLOCKEND  ---      ---       LVL=1
      0100095CH   LINE      CODE     ---       #445
      01000962H   LINE      CODE     ---       #446
      01000962H   LINE      CODE     ---       #449
      01000975H   LINE      CODE     ---       #450
      0100097BH   LINE      CODE     ---       #451
      0100097BH   LINE      CODE     ---       #452
      01000984H   LINE      CODE     ---       #453
      01000986H   LINE      CODE     ---       #455
      01000986H   LINE      CODE     ---       #456
      01000990H   LINE      CODE     ---       #457
      01000990H   LINE      CODE     ---       #459
      01000998H   LINE      CODE     ---       #460
      01000998H   LINE      CODE     ---       #461
      010009A0H   LINE      CODE     ---       #462
      010009A8H   LINE      CODE     ---       #463
      010009A8H   LINE      CODE     ---       #464
      010009ADH   LINE      CODE     ---       #465
      010009B0H   LINE      CODE     ---       #466
      010009B3H   LINE      CODE     ---       #469
      ---         BLOCKEND  ---      ---       LVL=0

      01000446H   BLOCK     CODE     ---       LVL=0
      01000446H   LINE      CODE     ---       #476
      01000446H   LINE      CODE     ---       #477
      01000446H   LINE      CODE     ---       #480
      01000449H   LINE      CODE     ---       #481
      01000454H   LINE      CODE     ---       #482
      01000456H   LINE      CODE     ---       #483
      01000459H   LINE      CODE     ---       #484
      01000460H   LINE      CODE     ---       #485
      01000467H   LINE      CODE     ---       #486
      0100046EH   LINE      CODE     ---       #487
      01000475H   LINE      CODE     ---       #488
      0100047CH   LINE      CODE     ---       #489
      01000483H   LINE      CODE     ---       #490
      0100048AH   LINE      CODE     ---       #491
      01000491H   LINE      CODE     ---       #492
      01000498H   LINE      CODE     ---       #493
LX51 LINKER/LOCATER V4.66.93.0                                                        01/30/2021  20:27:41  PAGE 34


      0100049FH   LINE      CODE     ---       #494
      010004A1H   LINE      CODE     ---       #495
      010004A4H   LINE      CODE     ---       #497
      010004ABH   LINE      CODE     ---       #498
      010004B2H   LINE      CODE     ---       #500
      010004B9H   LINE      CODE     ---       #501
      010004C0H   LINE      CODE     ---       #503
      010004C7H   LINE      CODE     ---       #504
      010004CEH   LINE      CODE     ---       #506
      010004D5H   LINE      CODE     ---       #507
      010004DCH   LINE      CODE     ---       #509
      010004E3H   LINE      CODE     ---       #510
      010004EAH   LINE      CODE     ---       #512
      010004F1H   LINE      CODE     ---       #513
      010004F8H   LINE      CODE     ---       #515
      ---         BLOCKEND  ---      ---       LVL=0

      01000C6EH   BLOCK     CODE     ---       LVL=0
      01000C6EH   LINE      CODE     ---       #524
      01000C6EH   LINE      CODE     ---       #525
      01000C6EH   LINE      CODE     ---       #526
      01000C75H   LINE      CODE     ---       #527
      01000C79H   LINE      CODE     ---       #528
      01000C7CH   LINE      CODE     ---       #529
      01000C7FH   LINE      CODE     ---       #530
      01000C82H   LINE      CODE     ---       #531
      01000C86H   LINE      CODE     ---       #532
      01000C89H   LINE      CODE     ---       #533
      01000C90H   LINE      CODE     ---       #534
      ---         BLOCKEND  ---      ---       LVL=0

      ---         MODULE    ---      ---       HX711
      00000011H   PUBLIC    DATA     DWORD     HX711_Buffer
      00000010H   PUBLIC    DATA     BYTE      Flag_Error
      0000000CH   PUBLIC    DATA     LONG      Weight_Shiwu
      00000008H   PUBLIC    DATA     DWORD     Weight_Maopi
      010007CDH   PUBLIC    CODE     ---       Get_Weight
      01000D5BH   PUBLIC    CODE     ---       Get_Maopi
      01000700H   PUBLIC    CODE     ---       HX711_Read
      01000D97H   PUBLIC    CODE     ---       _Delay__hx711_us
      01000D4EH   PUBLIC    CODE     ---       Init_HX711pin
      000000F6H   SFRSYM    DATA     BYTE      AINDIDS
      000000B1H   SFRSYM    DATA     BYTE      P0M1
      00000080H.2 SFRSYM    DATA     BIT       RXD_1
      000000B3H   SFRSYM    DATA     BYTE      P1M1
      000000B2H   SFRSYM    DATA     BYTE      P0M2
      00000080H   SFRSYM    DATA     BYTE      P0
      000000BBH   SFRSYM    DATA     BYTE      SADDR_1
      000000B4H   SFRSYM    DATA     BYTE      P1M2
      00000090H   SFRSYM    DATA     BYTE      P1
      00000090H.6 SFRSYM    DATA     BIT       TXD_1
      000000C0H.2 SFRSYM    DATA     BIT       AA
      000000ACH   SFRSYM    DATA     BYTE      P3M1
      000000A0H   SFRSYM    DATA     BYTE      P2
      000000B0H   SFRSYM    DATA     BYTE      P3
      000000ADH   SFRSYM    DATA     BYTE      P3M2
      000000D0H.6 SFRSYM    DATA     BIT       AC
      0000008FH   SFRSYM    DATA     BYTE      WKCON
      00000084H   SFRSYM    DATA     BYTE      RCTRIM0
      0000009CH   SFRSYM    DATA     BYTE      EIE1
      00000085H   SFRSYM    DATA     BYTE      RCTRIM1
      000000A8H.7 SFRSYM    DATA     BIT       EA
      000000D8H   SFRSYM    DATA     BYTE      PWMCON0
      000000DFH   SFRSYM    DATA     BYTE      PWMCON1
      00000098H.7 SFRSYM    DATA     BIT       FE
LX51 LINKER/LOCATER V4.66.93.0                                                        01/30/2021  20:27:41  PAGE 35


      000000A8H.6 SFRSYM    DATA     BIT       EADC
      000000D1H   SFRSYM    DATA     BYTE      PWMPH
      000000A8H   SFRSYM    DATA     BYTE      IE
      00000096H   SFRSYM    DATA     BYTE      CKSWT
      000000E8H.7 SFRSYM    DATA     BIT       ADCF
      000000FEH   SFRSYM    DATA     BYTE      EIP1
      000000D9H   SFRSYM    DATA     BYTE      PWMPL
      000000E8H.0 SFRSYM    DATA     BIT       ADCHS0
      000000C7H   SFRSYM    DATA     BYTE      TA
      000000E8H.1 SFRSYM    DATA     BIT       ADCHS1
      000000E8H.2 SFRSYM    DATA     BIT       ADCHS2
      000000A8H.4 SFRSYM    DATA     BIT       ES
      000000E8H.3 SFRSYM    DATA     BIT       ADCHS3
      000000C1H   SFRSYM    DATA     BYTE      I2ADDR
      000000B8H.6 SFRSYM    DATA     BIT       PADC
      000000B8H   SFRSYM    DATA     BYTE      IP
      00000098H.0 SFRSYM    DATA     BIT       RI
      000000A8H.5 SFRSYM    DATA     BIT       EBOD
      000000C0H.3 SFRSYM    DATA     BIT       SI
      000000D0H.7 SFRSYM    DATA     BIT       CY
      000000E8H.6 SFRSYM    DATA     BIT       ADCS
      000000F8H.7 SFRSYM    DATA     BIT       FE_1
      00000098H.1 SFRSYM    DATA     BIT       TI
      000000D8H.6 SFRSYM    DATA     BIT       LOAD
      00000097H   SFRSYM    DATA     BYTE      CKEN
      000000B8H.4 SFRSYM    DATA     BIT       PS
      00000081H   SFRSYM    DATA     BYTE      SP
      000000D0H.2 SFRSYM    DATA     BIT       OV
      000000B7H   SFRSYM    DATA     BYTE      PWMINTC
      000000B8H.5 SFRSYM    DATA     BIT       PBOD
      000000B2H   SFRSYM    DATA     BYTE      P0SR
      000000F7H   SFRSYM    DATA     BYTE      EIPH
      000000B4H   SFRSYM    DATA     BYTE      P1SR
      000000ADH   SFRSYM    DATA     BYTE      P3SR
      000000F8H.0 SFRSYM    DATA     BIT       RI_1
      000000F8H.1 SFRSYM    DATA     BIT       TI_1
      000000CBH   SFRSYM    DATA     BYTE      RCMP2H
      000000CFH   SFRSYM    DATA     BYTE      ADCMPH
      00000080H.0 SFRSYM    DATA     BIT       P00
      00000080H.1 SFRSYM    DATA     BIT       P01
      00000090H.0 SFRSYM    DATA     BIT       P10
      000000FBH   SFRSYM    DATA     BYTE      PMEN
      00000099H   SFRSYM    DATA     BYTE      SBUF
      00000087H   SFRSYM    DATA     BYTE      PCON
      00000080H.2 SFRSYM    DATA     BIT       P02
      00000090H.1 SFRSYM    DATA     BIT       P11
      000000A0H.0 SFRSYM    DATA     BIT       P20
      000000CAH   SFRSYM    DATA     BYTE      RCMP2L
      00000080H.3 SFRSYM    DATA     BIT       P03
      00000090H.2 SFRSYM    DATA     BIT       P12
      000000B0H.0 SFRSYM    DATA     BIT       P30
      000000E3H   SFRSYM    DATA     BYTE      ADCDLY
      000000CEH   SFRSYM    DATA     BYTE      ADCMPL
      00000080H.4 SFRSYM    DATA     BIT       P04
      00000090H.3 SFRSYM    DATA     BIT       P13
      00000098H   SFRSYM    DATA     BYTE      SCON
      00000080H.5 SFRSYM    DATA     BIT       P05
      00000090H.4 SFRSYM    DATA     BIT       P14
      00000089H   SFRSYM    DATA     BYTE      TMOD
      00000088H   SFRSYM    DATA     BYTE      TCON
      00000080H.6 SFRSYM    DATA     BIT       P06
      00000090H.5 SFRSYM    DATA     BIT       P15
      00000080H.7 SFRSYM    DATA     BIT       P07
      00000090H.6 SFRSYM    DATA     BIT       P16
      00000090H.7 SFRSYM    DATA     BIT       P17
LX51 LINKER/LOCATER V4.66.93.0                                                        01/30/2021  20:27:41  PAGE 36


      00000080H.0 SFRSYM    DATA     BIT       MOSI
      00000080H.1 SFRSYM    DATA     BIT       MISO
      000000F3H   SFRSYM    DATA     BYTE      SPCR
      000000BDH   SFRSYM    DATA     BYTE      I2STAT
      000000F5H   SFRSYM    DATA     BYTE      SPDR
      000000D8H.5 SFRSYM    DATA     BIT       PWMF
      000000E5H   SFRSYM    DATA     BYTE      C0H
      000000E7H   SFRSYM    DATA     BYTE      C1H
      000000EEH   SFRSYM    DATA     BYTE      C2H
      0000009FH   SFRSYM    DATA     BYTE      CHPCON
      00000088H.1 SFRSYM    DATA     BIT       IE0
      00000088H.3 SFRSYM    DATA     BIT       IE1
      000000E4H   SFRSYM    DATA     BYTE      C0L
      00000091H   SFRSYM    DATA     BYTE      SFRS
      000000E6H   SFRSYM    DATA     BYTE      C1L
      000000C8H.0 SFRSYM    DATA     BIT       CM_RL2
      000000F0H   SFRSYM    DATA     BYTE      B
      000000EDH   SFRSYM    DATA     BYTE      C2L
      0000009AH   SFRSYM    DATA     BYTE      SBUF_1
      000000A5H   SFRSYM    DATA     BYTE      IAPUEN
      000000F8H   SFRSYM    DATA     BYTE      SCON_1
      000000E0H   SFRSYM    DATA     BYTE      ACC
      000000A8H.1 SFRSYM    DATA     BIT       ET0
      000000F4H   SFRSYM    DATA     BYTE      SPSR
      000000A4H   SFRSYM    DATA     BYTE      IAPTRG
      00000088H.5 SFRSYM    DATA     BIT       TF0
      000000A8H.3 SFRSYM    DATA     BIT       ET1
      00000088H.7 SFRSYM    DATA     BIT       TF1
      00000098H.2 SFRSYM    DATA     BIT       RB8
      000000C8H.7 SFRSYM    DATA     BIT       TF2
      000000D7H   SFRSYM    DATA     BYTE      FBD
      0000008CH   SFRSYM    DATA     BYTE      TH0
      00000088H.0 SFRSYM    DATA     BIT       IT0
      000000A8H.0 SFRSYM    DATA     BIT       EX0
      000000C6H   SFRSYM    DATA     BYTE      RH3
      0000008DH   SFRSYM    DATA     BYTE      TH1
      00000088H.2 SFRSYM    DATA     BIT       IT1
      00000098H.3 SFRSYM    DATA     BIT       TB8
      000000A8H.2 SFRSYM    DATA     BIT       EX1
      000000CDH   SFRSYM    DATA     BYTE      TH2
      000000D0H.0 SFRSYM    DATA     BIT       P
      000000FAH   SFRSYM    DATA     BYTE      PDTCNT
      00000098H.7 SFRSYM    DATA     BIT       SM0
      0000008AH   SFRSYM    DATA     BYTE      TL0
      00000098H.6 SFRSYM    DATA     BIT       SM1
      000000C5H   SFRSYM    DATA     BYTE      RL3
      0000008BH   SFRSYM    DATA     BYTE      TL1
      00000098H.5 SFRSYM    DATA     BIT       SM2
      000000C0H.6 SFRSYM    DATA     BIT       I2CEN
      000000CCH   SFRSYM    DATA     BYTE      TL2
      000000B1H   SFRSYM    DATA     BYTE      P0S
      0000009BH   SFRSYM    DATA     BYTE      EIE
      000000B8H.1 SFRSYM    DATA     BIT       PT0
      000000B3H   SFRSYM    DATA     BYTE      P1S
      000000B8H.3 SFRSYM    DATA     BIT       PT1
      000000D0H.3 SFRSYM    DATA     BIT       RS0
      000000BCH   SFRSYM    DATA     BYTE      I2DAT
      000000B5H   SFRSYM    DATA     BYTE      P2S
      00000088H.4 SFRSYM    DATA     BIT       TR0
      000000D0H.4 SFRSYM    DATA     BIT       RS1
      000000BEH   SFRSYM    DATA     BYTE      I2CLK
      000000ACH   SFRSYM    DATA     BYTE      P3S
      00000088H.6 SFRSYM    DATA     BIT       TR1
      000000D8H.4 SFRSYM    DATA     BIT       CLRPWM
      00000090H.4 SFRSYM    DATA     BIT       SDA
LX51 LINKER/LOCATER V4.66.93.0                                                        01/30/2021  20:27:41  PAGE 37


      000000B8H.0 SFRSYM    DATA     BIT       PX0
      000000C8H.2 SFRSYM    DATA     BIT       TR2
      000000FFH   SFRSYM    DATA     BYTE      EIPH1
      000000B8H.2 SFRSYM    DATA     BIT       PX1
      000000E8H   SFRSYM    DATA     BYTE      ADCCON0
      000000E1H   SFRSYM    DATA     BYTE      ADCCON1
      000000E2H   SFRSYM    DATA     BYTE      ADCCON2
      000000C0H   SFRSYM    DATA     BYTE      I2CON
      00000083H   SFRSYM    DATA     BYTE      DPH
      000000F8H.2 SFRSYM    DATA     BIT       RB8_1
      000000EFH   SFRSYM    DATA     BYTE      EIP
      000000F8H.3 SFRSYM    DATA     BIT       TB8_1
      000000ECH   SFRSYM    DATA     BYTE      PIF
      00000082H   SFRSYM    DATA     BYTE      DPL
      000000F8H.7 SFRSYM    DATA     BIT       SM0_1
      000000FCH   SFRSYM    DATA     BYTE      PMD
      000000B7H   SFRSYM    DATA     BYTE      IPH
      00000090H.3 SFRSYM    DATA     BIT       SCL
      000000F8H.6 SFRSYM    DATA     BIT       SM1_1
      000000BFH   SFRSYM    DATA     BYTE      I2TOC
      000000F8H.5 SFRSYM    DATA     BIT       SM2_1
      000000C3H   SFRSYM    DATA     BYTE      ADCRH
      000000A7H   SFRSYM    DATA     BYTE      IAPAH
      00000098H.4 SFRSYM    DATA     BIT       REN
      000000AEH   SFRSYM    DATA     BYTE      IAPFD
      00000092H   SFRSYM    DATA     BYTE      CAPCON0
      000000C0H.0 SFRSYM    DATA     BIT       I2CPX
      000000C9H   SFRSYM    DATA     BYTE      T2MOD
      000000C8H   SFRSYM    DATA     BYTE      T2CON
      000000C2H   SFRSYM    DATA     BYTE      ADCRL
      000000A3H   SFRSYM    DATA     BYTE      BODCON0
      00000093H   SFRSYM    DATA     BYTE      CAPCON1
      000000C0H.5 SFRSYM    DATA     BIT       STA
      000000C4H   SFRSYM    DATA     BYTE      T3CON
      000000ABH   SFRSYM    DATA     BYTE      BODCON1
      000000A6H   SFRSYM    DATA     BYTE      IAPAL
      00000094H   SFRSYM    DATA     BYTE      CAPCON2
      000000F1H   SFRSYM    DATA     BYTE      CAPCON3
      000000F2H   SFRSYM    DATA     BYTE      CAPCON4
      000000D8H.7 SFRSYM    DATA     BIT       PWMRUN
      000000F3H   SFRSYM    DATA     BYTE      SPCR2
      000000B9H   SFRSYM    DATA     BYTE      SADEN
      000000AFH   SFRSYM    DATA     BYTE      IAPCN
      000000D2H   SFRSYM    DATA     BYTE      PWM0H
      00000080H.7 SFRSYM    DATA     BIT       RXD
      000000D6H   SFRSYM    DATA     BYTE      PNP
      000000D3H   SFRSYM    DATA     BYTE      PWM1H
      000000D4H   SFRSYM    DATA     BYTE      PWM2H
      000000A9H   SFRSYM    DATA     BYTE      SADDR
      0000008EH   SFRSYM    DATA     BYTE      CKCON
      00000080H.4 SFRSYM    DATA     BIT       STADC
      00000080H.6 SFRSYM    DATA     BIT       TXD
      000000D5H   SFRSYM    DATA     BYTE      PWM3H
      000000DAH   SFRSYM    DATA     BYTE      PWM0L
      000000C4H   SFRSYM    DATA     BYTE      PWM4H
      000000DBH   SFRSYM    DATA     BYTE      PWM1L
      000000C5H   SFRSYM    DATA     BYTE      PWM5H
      000000A2H   SFRSYM    DATA     BYTE      AUXR1
      00000095H   SFRSYM    DATA     BYTE      CKDIV
      000000DCH   SFRSYM    DATA     BYTE      PWM2L
      000000DDH   SFRSYM    DATA     BYTE      PWM3L
      00000086H   SFRSYM    DATA     BYTE      RWK
      000000D0H.5 SFRSYM    DATA     BIT       F0
      000000CCH   SFRSYM    DATA     BYTE      PWM4L
      000000C0H.4 SFRSYM    DATA     BIT       STO
LX51 LINKER/LOCATER V4.66.93.0                                                        01/30/2021  20:27:41  PAGE 38


      000000E8H.4 SFRSYM    DATA     BIT       ETGSEL0
      000000F8H.4 SFRSYM    DATA     BIT       REN_1
      000000CDH   SFRSYM    DATA     BYTE      PWM5L
      000000E8H.5 SFRSYM    DATA     BIT       ETGSEL1
      000000E9H   SFRSYM    DATA     BYTE      PICON
      000000DEH   SFRSYM    DATA     BYTE      PIOCON0
      000000D0H   SFRSYM    DATA     BYTE      PSW
      000000EAH   SFRSYM    DATA     BYTE      PINEN
      000000C6H   SFRSYM    DATA     BYTE      PIOCON1
      000000F9H   SFRSYM    DATA     BYTE      PDTEN
      000000AAH   SFRSYM    DATA     BYTE      WDCON
      000000EBH   SFRSYM    DATA     BYTE      PIPEN
      000000BAH   SFRSYM    DATA     BYTE      SADEN_1

      01000D4EH   BLOCK     CODE     ---       LVL=0
      01000D4EH   LINE      CODE     ---       #19
      01000D4EH   LINE      CODE     ---       #20
      01000D4EH   LINE      CODE     ---       #21
      01000D54H   LINE      CODE     ---       #22
      01000D5AH   LINE      CODE     ---       #23
      ---         BLOCKEND  ---      ---       LVL=0

      01000D97H   BLOCK     CODE     ---       LVL=0
      00000007H   SYMBOL    DATA     BYTE      t
      01000D97H   LINE      CODE     ---       #25
      01000D97H   LINE      CODE     ---       #26
      01000D97H   LINE      CODE     ---       #27
      01000D9DH   LINE      CODE     ---       #28
      ---         BLOCKEND  ---      ---       LVL=0

      01000700H   BLOCK     CODE     ---       LVL=0
      01000700H   BLOCK     CODE     NEAR LAB  LVL=1
      00000031H   SYMBOL    DATA     DWORD     count
      00000003H   SYMBOL    DATA     BYTE      i
      ---         BLOCKEND  ---      ---       LVL=1
      01000700H   LINE      CODE     ---       #35
      01000700H   LINE      CODE     ---       #36
      01000700H   LINE      CODE     ---       #39
      01000702H   LINE      CODE     ---       #40
      0100070BH   LINE      CODE     ---       #41
      0100070EH   LINE      CODE     ---       #43
      0100071AH   LINE      CODE     ---       #44
      0100071AH   LINE      CODE     ---       #45
      0100071CH   LINE      CODE     ---       #46
      01000731H   LINE      CODE     ---       #48
      01000733H   LINE      CODE     ---       #49
      01000736H   LINE      CODE     ---       #50
      01000747H   LINE      CODE     ---       #51
      0100074AH   LINE      CODE     ---       #52
      0100074CH   LINE      CODE     ---       #53
      0100075EH   LINE      CODE     ---       #54
      01000760H   LINE      CODE     ---       #56
      01000767H   LINE      CODE     ---       #57
      ---         BLOCKEND  ---      ---       LVL=0

      01000D5BH   BLOCK     CODE     ---       LVL=0
      01000D5BH   LINE      CODE     ---       #62
      01000D5BH   LINE      CODE     ---       #63
      01000D5BH   LINE      CODE     ---       #64
      01000D66H   LINE      CODE     ---       #65
      ---         BLOCKEND  ---      ---       LVL=0

      010007CDH   BLOCK     CODE     ---       LVL=0
      010007CDH   LINE      CODE     ---       #70
      010007CDH   LINE      CODE     ---       #71
LX51 LINKER/LOCATER V4.66.93.0                                                        01/30/2021  20:27:41  PAGE 39


      010007CDH   LINE      CODE     ---       #72
      010007D8H   LINE      CODE     ---       #73
      010007EEH   LINE      CODE     ---       #74
      010007EEH   LINE      CODE     ---       #75
      010007FAH   LINE      CODE     ---       #76
      01000812H   LINE      CODE     ---       #78
      01000831H   LINE      CODE     ---       #82
      01000831H   LINE      CODE     ---       #85
      ---         BLOCKEND  ---      ---       LVL=0

      ---         MODULE    ---      ---       ?C_STARTUP
      01000000H   PUBLIC    CODE     ---       ?C_STARTUP
      000000E0H   SYMBOL    DATA     ---       ACC
      000000F0H   SYMBOL    DATA     ---       B
      00000083H   SYMBOL    DATA     ---       DPH
      00000082H   SYMBOL    DATA     ---       DPL
      00000000H   SYMBOL    NUMBER   ---       IBPSTACK
      00000100H   SYMBOL    NUMBER   ---       IBPSTACKTOP
      00000080H   SYMBOL    NUMBER   ---       IDATALEN
      01000514H   SYMBOL    CODE     ---       IDATALOOP
      00000000H   SYMBOL    NUMBER   ---       PBPSTACK
      00000000H   SYMBOL    NUMBER   ---       PBPSTACKTOP
      00000000H   SYMBOL    NUMBER   ---       PDATALEN
      00000000H   SYMBOL    NUMBER   ---       PDATASTART
      00000000H   SYMBOL    NUMBER   ---       PPAGE
      00000000H   SYMBOL    NUMBER   ---       PPAGEENABLE
      000000A0H   SYMBOL    DATA     ---       PPAGE_SFR
      00000081H   SYMBOL    DATA     ---       SP
      010004FFH   SYMBOL    CODE     ---       STARTUP1
      00000000H   SYMBOL    NUMBER   ---       XBPSTACK
      00000000H   SYMBOL    NUMBER   ---       XBPSTACKTOP
      000002FFH   SYMBOL    NUMBER   ---       XDATALEN
      0100051FH   SYMBOL    CODE     ---       XDATALOOP
      00000000H   SYMBOL    NUMBER   ---       XDATASTART
      01000000H   LINE      CODE     ---       #94
      010004FFH   LINE      CODE     ---       #100
      01000502H   LINE      CODE     ---       #101
      01000505H   LINE      CODE     ---       #102
      01000508H   LINE      CODE     ---       #104
      0100050BH   LINE      CODE     ---       #105
      0100050EH   LINE      CODE     ---       #106
      01000511H   LINE      CODE     ---       #109
      01000513H   LINE      CODE     ---       #110
      01000514H   LINE      CODE     ---       #111
      01000515H   LINE      CODE     ---       #112
      01000517H   LINE      CODE     ---       #116
      0100051AH   LINE      CODE     ---       #117
      0100051CH   LINE      CODE     ---       #119
      0100051EH   LINE      CODE     ---       #123
      0100051FH   LINE      CODE     ---       #124
      01000520H   LINE      CODE     ---       #125
      01000521H   LINE      CODE     ---       #126
      01000523H   LINE      CODE     ---       #127
      01000525H   LINE      CODE     ---       #161
      01000528H   LINE      CODE     ---       #165

      ---         MODULE    ---      ---       ?C?FPDIV
      01000006H   PUBLIC    CODE     ---       ?C?FPDIV

      ---         MODULE    ---      ---       ?C?FCAST
      010000ADH   PUBLIC    CODE     ---       ?C?FCASTC
      010000A8H   PUBLIC    CODE     ---       ?C?FCASTI
      010000A3H   PUBLIC    CODE     ---       ?C?FCASTL

      ---         MODULE    ---      ---       ?C?CASTF
LX51 LINKER/LOCATER V4.66.93.0                                                        01/30/2021  20:27:41  PAGE 40


      010000E1H   PUBLIC    CODE     ---       ?C?CASTF

      ---         MODULE    ---      ---       ?C?FPGETOPN
      01000118H   PUBLIC    CODE     ---       ?C?FPGETOPN2
      0100014DH   PUBLIC    CODE     ---       ?C?FPNANRESULT
      01000157H   PUBLIC    CODE     ---       ?C?FPOVERFLOW
      0100012FH   PUBLIC    CODE     ---       ?C?FPRESULT
      01000143H   PUBLIC    CODE     ---       ?C?FPRESULT2
      01000154H   PUBLIC    CODE     ---       ?C?FPUNDERFLOW

      ---         MODULE    ---      ---       ?C_INIT
      01000566H   PUBLIC    CODE     ---       ?C_START

      ---         MODULE    ---      ---       ?C?CLDOPTR
      01000162H   PUBLIC    CODE     ---       ?C?CLDOPTR

      ---         MODULE    ---      ---       ?C?IMUL
      0100018FH   PUBLIC    CODE     ---       ?C?IMUL

      ---         MODULE    ---      ---       ?C?SIDIV
      010001A1H   PUBLIC    CODE     ---       ?C?SIDIV

      ---         MODULE    ---      ---       ?C?ULDIV
      01000213H   PUBLIC    CODE     ---       ?C?ULDIV

      ---         MODULE    ---      ---       ?C?LNEG
      010002A5H   PUBLIC    CODE     ---       ?C?LNEG

      ---         MODULE    ---      ---       ?C?ULCMP
      010002B3H   PUBLIC    CODE     ---       ?C?ULCMP

      ---         MODULE    ---      ---       ?C?ULSHR
      010002C4H   PUBLIC    CODE     ---       ?C?ULSHR

      ---         MODULE    ---      ---       ?C?LSHL
      010002D7H   PUBLIC    CODE     ---       ?C?LSHL

      ---         MODULE    ---      ---       RAND
      0000005CH   PUBLIC    DATA     ---       ?SRAND?BYTE
      01000AA2H   PUBLIC    CODE     ---       RAND
      01000AE4H   PUBLIC    CODE     ---       _SRAND

      ---         MODULE    ---      ---       ?C?UIDIV
      010002EAH   PUBLIC    CODE     ---       ?C?UIDIV



*** WARNING L57: UNCALLED FUNCTION, IGNORED FOR OVERLAY PROCESS
    NAME:    _TIMER0_DELAY100US/DELAY

*** WARNING L57: UNCALLED FUNCTION, IGNORED FOR OVERLAY PROCESS
    NAME:    _TIMER1_DELAY10MS/DELAY

*** WARNING L57: UNCALLED FUNCTION, IGNORED FOR OVERLAY PROCESS
    NAME:    _TIMER2_DELAY500US/DELAY

*** WARNING L57: UNCALLED FUNCTION, IGNORED FOR OVERLAY PROCESS
    NAME:    _TIMER3_DELAY100MS/DELAY

*** WARNING L57: UNCALLED FUNCTION, IGNORED FOR OVERLAY PROCESS
    NAME:    _TIMER3_DELAY10US/DELAY

*** WARNING L57: UNCALLED FUNCTION, IGNORED FOR OVERLAY PROCESS
    NAME:    _INITIALUART0_TIMER1/COMMON

LX51 LINKER/LOCATER V4.66.93.0                                                        01/30/2021  20:27:41  PAGE 41


*** WARNING L57: UNCALLED FUNCTION, IGNORED FOR OVERLAY PROCESS
    NAME:    _INITIALUART0_TIMER3/COMMON

*** WARNING L57: UNCALLED FUNCTION, IGNORED FOR OVERLAY PROCESS
    NAME:    RECEIVE_DATA_FROM_UART0/COMMON

*** WARNING L57: UNCALLED FUNCTION, IGNORED FOR OVERLAY PROCESS
    NAME:    _SEND_DATA_TO_UART0/COMMON

*** WARNING L57: UNCALLED FUNCTION, IGNORED FOR OVERLAY PROCESS
    NAME:    _INITIALUART1_TIMER3/COMMON

*** WARNING L57: UNCALLED FUNCTION, IGNORED FOR OVERLAY PROCESS
    NAME:    RECEIVE_DATA_FROM_UART1/COMMON

*** WARNING L57: UNCALLED FUNCTION, IGNORED FOR OVERLAY PROCESS
    NAME:    _SEND_DATA_TO_UART1/COMMON

*** WARNING L57: UNCALLED FUNCTION, IGNORED FOR OVERLAY PROCESS
    NAME:    OLED_DISPLAY_ON/IIC_OLED

*** WARNING L57: UNCALLED FUNCTION, IGNORED FOR OVERLAY PROCESS
    NAME:    OLED_DISPLAY_OFF/IIC_OLED

*** WARNING L57: UNCALLED FUNCTION, IGNORED FOR OVERLAY PROCESS
    NAME:    _OLED_POW/IIC_OLED

*** WARNING L57: UNCALLED FUNCTION, IGNORED FOR OVERLAY PROCESS
    NAME:    _OLED_SHOWCHINESE/IIC_OLED

*** WARNING L57: UNCALLED FUNCTION, IGNORED FOR OVERLAY PROCESS
    NAME:    _OLED_DRAWBMP/IIC_OLED

*** WARNING L57: UNCALLED FUNCTION, IGNORED FOR OVERLAY PROCESS
    NAME:    _OLED_SHOWBMPEXP/IIC_OLED

*** WARNING L57: UNCALLED FUNCTION, IGNORED FOR OVERLAY PROCESS
    NAME:    _OLED_CLEANBMPEXP/IIC_OLED

*** WARNING L57: UNCALLED FUNCTION, IGNORED FOR OVERLAY PROCESS
    NAME:    OLED_SCROLL/IIC_OLED

*** WARNING L57: UNCALLED FUNCTION, IGNORED FOR OVERLAY PROCESS
    NAME:    _DELAY__HX711_US/HX711

Program Size: data=98.2 xdata=0 const=2374 code=3490
LX51 RUN COMPLETE.  21 WARNING(S),  0 ERROR(S)
